SF:/Users/jeroen.vervaeke/git/github.com/mongodb/atlas-local-lib/src/client/create_deployment.rs
FN:345,_RNCNCNvNtNtNtCscJhqz4rleTI_11atlas_local6client17create_deployment5testss_22test_create_deployment00Bb_
FN:364,_RNCNCNvNtNtNtCscJhqz4rleTI_11atlas_local6client17create_deployment5testss_22test_create_deployment0s0_0Bb_
FN:373,_RNCNCNvNtNtNtCscJhqz4rleTI_11atlas_local6client17create_deployment5testss_22test_create_deployment0s1_0Bb_
FN:350,_RNCNCNvNtNtNtCscJhqz4rleTI_11atlas_local6client17create_deployment5testss_22test_create_deployment0s_0Bb_
FN:741,_RNCNCNvNtNtNtCscJhqz4rleTI_11atlas_local6client17create_deployment5testss_30test_create_deployment_timeout00Bb_
FN:760,_RNCNCNvNtNtNtCscJhqz4rleTI_11atlas_local6client17create_deployment5testss_30test_create_deployment_timeout0s0_0Bb_
FN:769,_RNCNCNvNtNtNtCscJhqz4rleTI_11atlas_local6client17create_deployment5testss_30test_create_deployment_timeout0s1_0Bb_
FN:746,_RNCNCNvNtNtNtCscJhqz4rleTI_11atlas_local6client17create_deployment5testss_30test_create_deployment_timeout0s_0Bb_
FN:394,_RNCNCNvNtNtNtCscJhqz4rleTI_11atlas_local6client17create_deployment5testss_39test_create_deployment_pull_image_error00Bb_
FN:617,_RNCNCNvNtNtNtCscJhqz4rleTI_11atlas_local6client17create_deployment5testss_40test_wait_for_healthy_deployment_retries00Bb_
FN:636,_RNCNCNvNtNtNtCscJhqz4rleTI_11atlas_local6client17create_deployment5testss_40test_wait_for_healthy_deployment_retries0s0_0Bb_
FN:645,_RNCNCNvNtNtNtCscJhqz4rleTI_11atlas_local6client17create_deployment5testss_40test_wait_for_healthy_deployment_retries0s1_0Bb_
FN:654,_RNCNCNvNtNtNtCscJhqz4rleTI_11atlas_local6client17create_deployment5testss_40test_wait_for_healthy_deployment_retries0s2_0Bb_
FN:622,_RNCNCNvNtNtNtCscJhqz4rleTI_11atlas_local6client17create_deployment5testss_40test_wait_for_healthy_deployment_retries0s_0Bb_
FN:683,_RNCNCNvNtNtNtCscJhqz4rleTI_11atlas_local6client17create_deployment5testss_41test_wait_for_healthy_deployment_disabled00Bb_
FN:702,_RNCNCNvNtNtNtCscJhqz4rleTI_11atlas_local6client17create_deployment5testss_41test_wait_for_healthy_deployment_disabled0s0_0Bb_
FN:711,_RNCNCNvNtNtNtCscJhqz4rleTI_11atlas_local6client17create_deployment5testss_41test_wait_for_healthy_deployment_disabled0s1_0Bb_
FN:688,_RNCNCNvNtNtNtCscJhqz4rleTI_11atlas_local6client17create_deployment5testss_41test_wait_for_healthy_deployment_disabled0s_0Bb_
FN:805,_RNCNCNvNtNtNtCscJhqz4rleTI_11atlas_local6client17create_deployment5testss_41test_wait_for_healthy_deployment_no_state00Bb_
FN:824,_RNCNCNvNtNtNtCscJhqz4rleTI_11atlas_local6client17create_deployment5testss_41test_wait_for_healthy_deployment_no_state0s0_0Bb_
FN:833,_RNCNCNvNtNtNtCscJhqz4rleTI_11atlas_local6client17create_deployment5testss_41test_wait_for_healthy_deployment_no_state0s1_0Bb_
FN:810,_RNCNCNvNtNtNtCscJhqz4rleTI_11atlas_local6client17create_deployment5testss_41test_wait_for_healthy_deployment_no_state0s_0Bb_
FN:867,_RNCNCNvNtNtNtCscJhqz4rleTI_11atlas_local6client17create_deployment5testss_42test_wait_for_healthy_deployment_no_health00Bb_
FN:886,_RNCNCNvNtNtNtCscJhqz4rleTI_11atlas_local6client17create_deployment5testss_42test_wait_for_healthy_deployment_no_health0s0_0Bb_
FN:895,_RNCNCNvNtNtNtCscJhqz4rleTI_11atlas_local6client17create_deployment5testss_42test_wait_for_healthy_deployment_no_health0s1_0Bb_
FN:872,_RNCNCNvNtNtNtCscJhqz4rleTI_11atlas_local6client17create_deployment5testss_42test_wait_for_healthy_deployment_no_health0s_0Bb_
FN:505,_RNCNCNvNtNtNtCscJhqz4rleTI_11atlas_local6client17create_deployment5testss_44test_create_deployment_start_container_error00Bb_
FN:520,_RNCNCNvNtNtNtCscJhqz4rleTI_11atlas_local6client17create_deployment5testss_44test_create_deployment_start_container_error0s0_0Bb_
FN:510,_RNCNCNvNtNtNtCscJhqz4rleTI_11atlas_local6client17create_deployment5testss_44test_create_deployment_start_container_error0s_0Bb_
FN:467,_RNCNCNvNtNtNtCscJhqz4rleTI_11atlas_local6client17create_deployment5testss_45test_create_deployment_create_container_error00Bb_
FN:472,_RNCNCNvNtNtNtCscJhqz4rleTI_11atlas_local6client17create_deployment5testss_45test_create_deployment_create_container_error0s_0Bb_
FN:427,_RNCNCNvNtNtNtCscJhqz4rleTI_11atlas_local6client17create_deployment5testss_47test_create_deployment_container_already_exists00Bb_
FN:432,_RNCNCNvNtNtNtCscJhqz4rleTI_11atlas_local6client17create_deployment5testss_47test_create_deployment_container_already_exists0s_0Bb_
FN:929,_RNCNCNvNtNtNtCscJhqz4rleTI_11atlas_local6client17create_deployment5testss_49test_wait_for_healthy_deployment_no_health_status00Bb_
FN:948,_RNCNCNvNtNtNtCscJhqz4rleTI_11atlas_local6client17create_deployment5testss_49test_wait_for_healthy_deployment_no_health_status0s0_0Bb_
FN:957,_RNCNCNvNtNtNtCscJhqz4rleTI_11atlas_local6client17create_deployment5testss_49test_wait_for_healthy_deployment_no_health_status0s1_0Bb_
FN:934,_RNCNCNvNtNtNtCscJhqz4rleTI_11atlas_local6client17create_deployment5testss_49test_wait_for_healthy_deployment_no_health_status0s_0Bb_
FN:557,_RNCNCNvNtNtNtCscJhqz4rleTI_11atlas_local6client17create_deployment5testss_60test_create_deployment_wait_for_healthy_deployment_unhealthy00Bb_
FN:576,_RNCNCNvNtNtNtCscJhqz4rleTI_11atlas_local6client17create_deployment5testss_60test_create_deployment_wait_for_healthy_deployment_unhealthy0s0_0Bb_
FN:585,_RNCNCNvNtNtNtCscJhqz4rleTI_11atlas_local6client17create_deployment5testss_60test_create_deployment_wait_for_healthy_deployment_unhealthy0s1_0Bb_
FN:562,_RNCNCNvNtNtNtCscJhqz4rleTI_11atlas_local6client17create_deployment5testss_60test_create_deployment_wait_for_healthy_deployment_unhealthy0s_0Bb_
FN:329,_RNCNvNtNtNtCscJhqz4rleTI_11atlas_local6client17create_deployment5testss_22test_create_deployment0B9_
FN:723,_RNCNvNtNtNtCscJhqz4rleTI_11atlas_local6client17create_deployment5testss_30test_create_deployment_timeout0B9_
FN:385,_RNCNvNtNtNtCscJhqz4rleTI_11atlas_local6client17create_deployment5testss_39test_create_deployment_pull_image_error0B9_
FN:601,_RNCNvNtNtNtCscJhqz4rleTI_11atlas_local6client17create_deployment5testss_40test_wait_for_healthy_deployment_retries0B9_
FN:666,_RNCNvNtNtNtCscJhqz4rleTI_11atlas_local6client17create_deployment5testss_41test_wait_for_healthy_deployment_disabled0B9_
FN:789,_RNCNvNtNtNtCscJhqz4rleTI_11atlas_local6client17create_deployment5testss_41test_wait_for_healthy_deployment_no_state0B9_
FN:851,_RNCNvNtNtNtCscJhqz4rleTI_11atlas_local6client17create_deployment5testss_42test_wait_for_healthy_deployment_no_health0B9_
FN:493,_RNCNvNtNtNtCscJhqz4rleTI_11atlas_local6client17create_deployment5testss_44test_create_deployment_start_container_error0B9_
FN:455,_RNCNvNtNtNtCscJhqz4rleTI_11atlas_local6client17create_deployment5testss_45test_create_deployment_create_container_error0B9_
FN:415,_RNCNvNtNtNtCscJhqz4rleTI_11atlas_local6client17create_deployment5testss_47test_create_deployment_container_already_exists0B9_
FN:913,_RNCNvNtNtNtCscJhqz4rleTI_11atlas_local6client17create_deployment5testss_49test_wait_for_healthy_deployment_no_health_status0B9_
FN:541,_RNCNvNtNtNtCscJhqz4rleTI_11atlas_local6client17create_deployment5testss_60test_create_deployment_wait_for_healthy_deployment_unhealthy0B9_
FN:164,_RNCNvXs8_NtNtNtCscJhqz4rleTI_11atlas_local6client17create_deployment5testsNtB7_10MockDockerNtNtBd_6docker15DockerPullImage10pull_image0Bd_
FN:169,_RNCNvXsa_NtNtNtCscJhqz4rleTI_11atlas_local6client17create_deployment5testsNtB7_10MockDockerNtNtBd_6docker21DockerCreateContainer16create_container0Bd_
FN:177,_RNCNvXsc_NtNtNtCscJhqz4rleTI_11atlas_local6client17create_deployment5testsNtB7_10MockDockerNtNtBd_6docker20DockerStartContainer15start_container0Bd_
FN:185,_RNCNvXse_NtNtNtCscJhqz4rleTI_11atlas_local6client17create_deployment5testsNtB7_10MockDockerNtNtBd_6docker22DockerInspectContainer17inspect_container0Bd_
FN:190,_RNvMNtNtNtNtNtCscJhqz4rleTI_11atlas_local6client17create_deployment5tests39___mock_MockDocker_DockerCreateContainer18___create_containerNtB2_5Rfunc8call_mut
FN:190,_RNvMs0_NtNtNtNtNtCscJhqz4rleTI_11atlas_local6client17create_deployment5tests39___mock_MockDocker_DockerCreateContainer18___create_containerNtB5_7Matcher7matches
FN:190,_RNvMs4_NtNtNtNtNtCscJhqz4rleTI_11atlas_local6client17create_deployment5tests39___mock_MockDocker_DockerCreateContainer18___create_containerNtB5_6Common15verify_sequence
FN:190,_RNvMs4_NtNtNtNtNtCscJhqz4rleTI_11atlas_local6client17create_deployment5tests39___mock_MockDocker_DockerCreateContainer18___create_containerNtB5_6Common16satisfy_sequence
FN:190,_RNvMs4_NtNtNtNtNtCscJhqz4rleTI_11atlas_local6client17create_deployment5tests39___mock_MockDocker_DockerCreateContainer18___create_containerNtB5_6Common4call
FN:190,_RNvMs4_NtNtNtNtNtCscJhqz4rleTI_11atlas_local6client17create_deployment5tests39___mock_MockDocker_DockerCreateContainer18___create_containerNtB5_6Common7is_done
FN:190,_RNvMs4_NtNtNtNtNtCscJhqz4rleTI_11atlas_local6client17create_deployment5tests39___mock_MockDocker_DockerCreateContainer18___create_containerNtB5_6Common7matches
FN:190,_RNvMs6_NtNtNtNtNtCscJhqz4rleTI_11atlas_local6client17create_deployment5tests39___mock_MockDocker_DockerCreateContainer18___create_containerNtB5_11Expectation4call
FN:190,_RNvMs6_NtNtNtNtNtCscJhqz4rleTI_11atlas_local6client17create_deployment5tests39___mock_MockDocker_DockerCreateContainer18___create_containerNtB5_11Expectation7is_done
FN:190,_RNvMs6_NtNtNtNtNtCscJhqz4rleTI_11atlas_local6client17create_deployment5tests39___mock_MockDocker_DockerCreateContainer18___create_containerNtB5_11Expectation7matches
FN:190,_RNvMs8_NtNtNtNtNtCscJhqz4rleTI_11atlas_local6client17create_deployment5tests39___mock_MockDocker_DockerCreateContainer18___create_containerNtB5_12Expectations3new
FN:190,_RNvMs8_NtNtNtNtNtCscJhqz4rleTI_11atlas_local6client17create_deployment5tests39___mock_MockDocker_DockerCreateContainer18___create_containerNtB5_12Expectations6expect
FN:190,_RNvMsa_NtNtNtNtNtCscJhqz4rleTI_11atlas_local6client17create_deployment5tests39___mock_MockDocker_DockerCreateContainer18___create_containerNtB5_12Expectations4call
FN:190,_RNvXs1_NtNtNtNtNtCscJhqz4rleTI_11atlas_local6client17create_deployment5tests39___mock_MockDocker_DockerCreateContainer18___create_containerNtB5_7MatcherNtNtCsaNl6UpbT7bw_4core7default7Default7default
FN:190,_RNvXs2_NtNtNtNtNtCscJhqz4rleTI_11atlas_local6client17create_deployment5tests39___mock_MockDocker_DockerCreateContainer18___create_containerNtB5_7MatcherNtNtCsaNl6UpbT7bw_4core3fmt7Display3fmt
FN:190,_RNvXs3_NtNtNtNtNtCscJhqz4rleTI_11atlas_local6client17create_deployment5tests39___mock_MockDocker_DockerCreateContainer18___create_containerNtB5_6CommonNtNtCsaNl6UpbT7bw_4core7default7Default7default
FN:190,_RNvXs7_NtNtNtNtNtCscJhqz4rleTI_11atlas_local6client17create_deployment5tests39___mock_MockDocker_DockerCreateContainer18___create_containerNtB5_11ExpectationNtNtCsaNl6UpbT7bw_4core7default7Default7default
FN:190,_RNvXs9_NtNtNtNtNtCscJhqz4rleTI_11atlas_local6client17create_deployment5tests39___mock_MockDocker_DockerCreateContainer18___create_containerNtB5_12ExpectationsNtNtCsaNl6UpbT7bw_4core7default7Default7default
FN:190,_RNvXs_NtNtNtNtNtCscJhqz4rleTI_11atlas_local6client17create_deployment5tests39___mock_MockDocker_DockerCreateContainer18___create_containerNtB4_5RfuncNtNtCsaNl6UpbT7bw_4core7default7Default7default
FN:190,_RNvMs7_NtNtNtCscJhqz4rleTI_11atlas_local6client17create_deployment5testsNtB5_10MockDocker3new
FN:190,_RNvMs9_NtNtNtCscJhqz4rleTI_11atlas_local6client17create_deployment5testsNtB5_10MockDocker17expect_pull_image
FN:190,_RNvMsb_NtNtNtCscJhqz4rleTI_11atlas_local6client17create_deployment5testsNtB5_10MockDocker23expect_create_container
FN:190,_RNvMsd_NtNtNtCscJhqz4rleTI_11atlas_local6client17create_deployment5testsNtB5_10MockDocker22expect_start_container
FN:190,_RNvMsf_NtNtNtCscJhqz4rleTI_11atlas_local6client17create_deployment5testsNtB5_10MockDocker24expect_inspect_container
FN:192,_RNvNtNtNtCscJhqz4rleTI_11atlas_local6client17create_deployment5tests38create_test_container_inspect_response
FN:265,_RNvNtNtNtCscJhqz4rleTI_11atlas_local6client17create_deployment5tests47create_test_container_inspect_response_no_state
FN:241,_RNvNtNtNtCscJhqz4rleTI_11atlas_local6client17create_deployment5tests47create_test_container_inspect_response_starting
FN:283,_RNvNtNtNtCscJhqz4rleTI_11atlas_local6client17create_deployment5tests48create_test_container_inspect_response_no_health
FN:217,_RNvNtNtNtCscJhqz4rleTI_11atlas_local6client17create_deployment5tests48create_test_container_inspect_response_unhealthy
FN:304,_RNvNtNtNtCscJhqz4rleTI_11atlas_local6client17create_deployment5tests55create_test_container_inspect_response_no_health_status
FN:329,_RNvNtNtNtCscJhqz4rleTI_11atlas_local6client17create_deployment5testss_22test_create_deployment
FN:723,_RNvNtNtNtCscJhqz4rleTI_11atlas_local6client17create_deployment5testss_30test_create_deployment_timeout
FN:385,_RNvNtNtNtCscJhqz4rleTI_11atlas_local6client17create_deployment5testss_39test_create_deployment_pull_image_error
FN:601,_RNvNtNtNtCscJhqz4rleTI_11atlas_local6client17create_deployment5testss_40test_wait_for_healthy_deployment_retries
FN:666,_RNvNtNtNtCscJhqz4rleTI_11atlas_local6client17create_deployment5testss_41test_wait_for_healthy_deployment_disabled
FN:789,_RNvNtNtNtCscJhqz4rleTI_11atlas_local6client17create_deployment5testss_41test_wait_for_healthy_deployment_no_state
FN:851,_RNvNtNtNtCscJhqz4rleTI_11atlas_local6client17create_deployment5testss_42test_wait_for_healthy_deployment_no_health
FN:493,_RNvNtNtNtCscJhqz4rleTI_11atlas_local6client17create_deployment5testss_44test_create_deployment_start_container_error
FN:455,_RNvNtNtNtCscJhqz4rleTI_11atlas_local6client17create_deployment5testss_45test_create_deployment_create_container_error
FN:415,_RNvNtNtNtCscJhqz4rleTI_11atlas_local6client17create_deployment5testss_47test_create_deployment_container_already_exists
FN:913,_RNvNtNtNtCscJhqz4rleTI_11atlas_local6client17create_deployment5testss_49test_wait_for_healthy_deployment_no_health_status
FN:541,_RNvNtNtNtCscJhqz4rleTI_11atlas_local6client17create_deployment5testss_60test_create_deployment_wait_for_healthy_deployment_unhealthy
FN:190,_RNvXNtNtNtCscJhqz4rleTI_11atlas_local6client17create_deployment5testsNtB2_10MockDockerNtNtCsaNl6UpbT7bw_4core7default7Default7default
FN:190,_RNvXs1_NtNtNtCscJhqz4rleTI_11atlas_local6client17create_deployment5testsNtB5_32MockDocker_DockerCreateContainerNtNtCsaNl6UpbT7bw_4core7default7Default7default
FN:190,_RNvXs3_NtNtNtCscJhqz4rleTI_11atlas_local6client17create_deployment5testsNtB5_31MockDocker_DockerStartContainerNtNtCsaNl6UpbT7bw_4core7default7Default7default
FN:190,_RNvXs5_NtNtNtCscJhqz4rleTI_11atlas_local6client17create_deployment5testsNtB5_33MockDocker_DockerInspectContainerNtNtCsaNl6UpbT7bw_4core7default7Default7default
FN:190,_RNvXs_NtNtNtCscJhqz4rleTI_11atlas_local6client17create_deployment5testsNtB4_26MockDocker_DockerPullImageNtNtCsaNl6UpbT7bw_4core7default7Default7default
FN:190,_RNvMNtNtNtNtNtCscJhqz4rleTI_11atlas_local6client17create_deployment5tests33___mock_MockDocker_DockerPullImage12___pull_imageNtB2_5Rfunc8call_mut
FN:190,_RNvMs0_NtNtNtNtNtCscJhqz4rleTI_11atlas_local6client17create_deployment5tests33___mock_MockDocker_DockerPullImage12___pull_imageNtB5_7Matcher7matches
FN:190,_RNvMs4_NtNtNtNtNtCscJhqz4rleTI_11atlas_local6client17create_deployment5tests33___mock_MockDocker_DockerPullImage12___pull_imageNtB5_6Common15verify_sequence
FN:190,_RNvMs4_NtNtNtNtNtCscJhqz4rleTI_11atlas_local6client17create_deployment5tests33___mock_MockDocker_DockerPullImage12___pull_imageNtB5_6Common16satisfy_sequence
FN:190,_RNvMs4_NtNtNtNtNtCscJhqz4rleTI_11atlas_local6client17create_deployment5tests33___mock_MockDocker_DockerPullImage12___pull_imageNtB5_6Common4call
FN:190,_RNvMs4_NtNtNtNtNtCscJhqz4rleTI_11atlas_local6client17create_deployment5tests33___mock_MockDocker_DockerPullImage12___pull_imageNtB5_6Common7is_done
FN:190,_RNvMs4_NtNtNtNtNtCscJhqz4rleTI_11atlas_local6client17create_deployment5tests33___mock_MockDocker_DockerPullImage12___pull_imageNtB5_6Common7matches
FN:190,_RNvMs6_NtNtNtNtNtCscJhqz4rleTI_11atlas_local6client17create_deployment5tests33___mock_MockDocker_DockerPullImage12___pull_imageNtB5_11Expectation4call
FN:190,_RNvMs6_NtNtNtNtNtCscJhqz4rleTI_11atlas_local6client17create_deployment5tests33___mock_MockDocker_DockerPullImage12___pull_imageNtB5_11Expectation7is_done
FN:190,_RNvMs6_NtNtNtNtNtCscJhqz4rleTI_11atlas_local6client17create_deployment5tests33___mock_MockDocker_DockerPullImage12___pull_imageNtB5_11Expectation7matches
FN:190,_RNvMs8_NtNtNtNtNtCscJhqz4rleTI_11atlas_local6client17create_deployment5tests33___mock_MockDocker_DockerPullImage12___pull_imageNtB5_12Expectations3new
FN:190,_RNvMs8_NtNtNtNtNtCscJhqz4rleTI_11atlas_local6client17create_deployment5tests33___mock_MockDocker_DockerPullImage12___pull_imageNtB5_12Expectations6expect
FN:190,_RNvMsa_NtNtNtNtNtCscJhqz4rleTI_11atlas_local6client17create_deployment5tests33___mock_MockDocker_DockerPullImage12___pull_imageNtB5_12Expectations4call
FN:190,_RNvXs1_NtNtNtNtNtCscJhqz4rleTI_11atlas_local6client17create_deployment5tests33___mock_MockDocker_DockerPullImage12___pull_imageNtB5_7MatcherNtNtCsaNl6UpbT7bw_4core7default7Default7default
FN:190,_RNvXs2_NtNtNtNtNtCscJhqz4rleTI_11atlas_local6client17create_deployment5tests33___mock_MockDocker_DockerPullImage12___pull_imageNtB5_7MatcherNtNtCsaNl6UpbT7bw_4core3fmt7Display3fmt
FN:190,_RNvXs3_NtNtNtNtNtCscJhqz4rleTI_11atlas_local6client17create_deployment5tests33___mock_MockDocker_DockerPullImage12___pull_imageNtB5_6CommonNtNtCsaNl6UpbT7bw_4core7default7Default7default
FN:190,_RNvXs7_NtNtNtNtNtCscJhqz4rleTI_11atlas_local6client17create_deployment5tests33___mock_MockDocker_DockerPullImage12___pull_imageNtB5_11ExpectationNtNtCsaNl6UpbT7bw_4core7default7Default7default
FN:190,_RNvXs9_NtNtNtNtNtCscJhqz4rleTI_11atlas_local6client17create_deployment5tests33___mock_MockDocker_DockerPullImage12___pull_imageNtB5_12ExpectationsNtNtCsaNl6UpbT7bw_4core7default7Default7default
FN:190,_RNvXs_NtNtNtNtNtCscJhqz4rleTI_11atlas_local6client17create_deployment5tests33___mock_MockDocker_DockerPullImage12___pull_imageNtB4_5RfuncNtNtCsaNl6UpbT7bw_4core7default7Default7default
FN:190,_RNvMNtNtNtNtNtCscJhqz4rleTI_11atlas_local6client17create_deployment5tests40___mock_MockDocker_DockerInspectContainer19___inspect_containerNtB2_5Rfunc8call_mut
FN:190,_RNvMs0_NtNtNtNtNtCscJhqz4rleTI_11atlas_local6client17create_deployment5tests40___mock_MockDocker_DockerInspectContainer19___inspect_containerNtB5_7Matcher7matches
FN:190,_RNvMs4_NtNtNtNtNtCscJhqz4rleTI_11atlas_local6client17create_deployment5tests40___mock_MockDocker_DockerInspectContainer19___inspect_containerNtB5_6Common15verify_sequence
FN:190,_RNvMs4_NtNtNtNtNtCscJhqz4rleTI_11atlas_local6client17create_deployment5tests40___mock_MockDocker_DockerInspectContainer19___inspect_containerNtB5_6Common16satisfy_sequence
FN:190,_RNvMs4_NtNtNtNtNtCscJhqz4rleTI_11atlas_local6client17create_deployment5tests40___mock_MockDocker_DockerInspectContainer19___inspect_containerNtB5_6Common4call
FN:190,_RNvMs4_NtNtNtNtNtCscJhqz4rleTI_11atlas_local6client17create_deployment5tests40___mock_MockDocker_DockerInspectContainer19___inspect_containerNtB5_6Common7is_done
FN:190,_RNvMs4_NtNtNtNtNtCscJhqz4rleTI_11atlas_local6client17create_deployment5tests40___mock_MockDocker_DockerInspectContainer19___inspect_containerNtB5_6Common7matches
FN:190,_RNvMs6_NtNtNtNtNtCscJhqz4rleTI_11atlas_local6client17create_deployment5tests40___mock_MockDocker_DockerInspectContainer19___inspect_containerNtB5_11Expectation4call
FN:190,_RNvMs6_NtNtNtNtNtCscJhqz4rleTI_11atlas_local6client17create_deployment5tests40___mock_MockDocker_DockerInspectContainer19___inspect_containerNtB5_11Expectation7is_done
FN:190,_RNvMs6_NtNtNtNtNtCscJhqz4rleTI_11atlas_local6client17create_deployment5tests40___mock_MockDocker_DockerInspectContainer19___inspect_containerNtB5_11Expectation7matches
FN:190,_RNvMs8_NtNtNtNtNtCscJhqz4rleTI_11atlas_local6client17create_deployment5tests40___mock_MockDocker_DockerInspectContainer19___inspect_containerNtB5_12Expectations3new
FN:190,_RNvMs8_NtNtNtNtNtCscJhqz4rleTI_11atlas_local6client17create_deployment5tests40___mock_MockDocker_DockerInspectContainer19___inspect_containerNtB5_12Expectations6expect
FN:190,_RNvMsa_NtNtNtNtNtCscJhqz4rleTI_11atlas_local6client17create_deployment5tests40___mock_MockDocker_DockerInspectContainer19___inspect_containerNtB5_12Expectations4call
FN:190,_RNvXs1_NtNtNtNtNtCscJhqz4rleTI_11atlas_local6client17create_deployment5tests40___mock_MockDocker_DockerInspectContainer19___inspect_containerNtB5_7MatcherNtNtCsaNl6UpbT7bw_4core7default7Default7default
FN:190,_RNvXs2_NtNtNtNtNtCscJhqz4rleTI_11atlas_local6client17create_deployment5tests40___mock_MockDocker_DockerInspectContainer19___inspect_containerNtB5_7MatcherNtNtCsaNl6UpbT7bw_4core3fmt7Display3fmt
FN:190,_RNvXs3_NtNtNtNtNtCscJhqz4rleTI_11atlas_local6client17create_deployment5tests40___mock_MockDocker_DockerInspectContainer19___inspect_containerNtB5_6CommonNtNtCsaNl6UpbT7bw_4core7default7Default7default
FN:190,_RNvXs7_NtNtNtNtNtCscJhqz4rleTI_11atlas_local6client17create_deployment5tests40___mock_MockDocker_DockerInspectContainer19___inspect_containerNtB5_11ExpectationNtNtCsaNl6UpbT7bw_4core7default7Default7default
FN:190,_RNvXs9_NtNtNtNtNtCscJhqz4rleTI_11atlas_local6client17create_deployment5tests40___mock_MockDocker_DockerInspectContainer19___inspect_containerNtB5_12ExpectationsNtNtCsaNl6UpbT7bw_4core7default7Default7default
FN:190,_RNvXs_NtNtNtNtNtCscJhqz4rleTI_11atlas_local6client17create_deployment5tests40___mock_MockDocker_DockerInspectContainer19___inspect_containerNtB4_5RfuncNtNtCsaNl6UpbT7bw_4core7default7Default7default
FN:190,_RINvMs4_NtNtNtNtNtCscJhqz4rleTI_11atlas_local6client17create_deployment5tests39___mock_MockDocker_DockerCreateContainer18___create_containerNtB6_6Common5timesjEBg_
FN:190,_RINvMs6_NtNtNtNtNtCscJhqz4rleTI_11atlas_local6client17create_deployment5tests39___mock_MockDocker_DockerCreateContainer18___create_containerNtB6_11Expectation5timesjEBg_
FN:190,_RINvMs6_NtNtNtNtNtCscJhqz4rleTI_11atlas_local6client17create_deployment5tests39___mock_MockDocker_DockerCreateContainer18___create_containerNtB6_11Expectation9returningNCNCNvBa_s_22test_create_deployment0s_0EBg_
FN:190,_RINvMs6_NtNtNtNtNtCscJhqz4rleTI_11atlas_local6client17create_deployment5tests39___mock_MockDocker_DockerCreateContainer18___create_containerNtB6_11Expectation9returningNCNCNvBa_s_30test_create_deployment_timeout0s_0EBg_
FN:190,_RINvMs6_NtNtNtNtNtCscJhqz4rleTI_11atlas_local6client17create_deployment5tests39___mock_MockDocker_DockerCreateContainer18___create_containerNtB6_11Expectation9returningNCNCNvBa_s_40test_wait_for_healthy_deployment_retries0s_0EBg_
FN:190,_RINvMs6_NtNtNtNtNtCscJhqz4rleTI_11atlas_local6client17create_deployment5tests39___mock_MockDocker_DockerCreateContainer18___create_containerNtB6_11Expectation9returningNCNCNvBa_s_41test_wait_for_healthy_deployment_disabled0s_0EBg_
FN:190,_RINvMs6_NtNtNtNtNtCscJhqz4rleTI_11atlas_local6client17create_deployment5tests39___mock_MockDocker_DockerCreateContainer18___create_containerNtB6_11Expectation9returningNCNCNvBa_s_41test_wait_for_healthy_deployment_no_state0s_0EBg_
FN:190,_RINvMs6_NtNtNtNtNtCscJhqz4rleTI_11atlas_local6client17create_deployment5tests39___mock_MockDocker_DockerCreateContainer18___create_containerNtB6_11Expectation9returningNCNCNvBa_s_42test_wait_for_healthy_deployment_no_health0s_0EBg_
FN:190,_RINvMs6_NtNtNtNtNtCscJhqz4rleTI_11atlas_local6client17create_deployment5tests39___mock_MockDocker_DockerCreateContainer18___create_containerNtB6_11Expectation9returningNCNCNvBa_s_44test_create_deployment_start_container_error0s_0EBg_
FN:190,_RINvMs6_NtNtNtNtNtCscJhqz4rleTI_11atlas_local6client17create_deployment5tests39___mock_MockDocker_DockerCreateContainer18___create_containerNtB6_11Expectation9returningNCNCNvBa_s_45test_create_deployment_create_container_error0s_0EBg_
FN:190,_RINvMs6_NtNtNtNtNtCscJhqz4rleTI_11atlas_local6client17create_deployment5tests39___mock_MockDocker_DockerCreateContainer18___create_containerNtB6_11Expectation9returningNCNCNvBa_s_47test_create_deployment_container_already_exists0s_0EBg_
FN:190,_RINvMs6_NtNtNtNtNtCscJhqz4rleTI_11atlas_local6client17create_deployment5tests39___mock_MockDocker_DockerCreateContainer18___create_containerNtB6_11Expectation9returningNCNCNvBa_s_49test_wait_for_healthy_deployment_no_health_status0s_0EBg_
FN:190,_RINvMs6_NtNtNtNtNtCscJhqz4rleTI_11atlas_local6client17create_deployment5tests39___mock_MockDocker_DockerCreateContainer18___create_containerNtB6_11Expectation9returningNCNCNvBa_s_60test_create_deployment_wait_for_healthy_deployment_unhealthy0s_0EBg_
FN:190,_RNCNvMs0_NtNtNtNtNtCscJhqz4rleTI_11atlas_local6client17create_deployment5tests39___mock_MockDocker_DockerCreateContainer18___create_containerNtB7_7Matcher7matches0Bh_
FN:190,_RNCNvMsa_NtNtNtNtNtCscJhqz4rleTI_11atlas_local6client17create_deployment5tests39___mock_MockDocker_DockerCreateContainer18___create_containerNtB7_12Expectations4call0Bh_
FN:190,_RNCNvMsa_NtNtNtNtNtCscJhqz4rleTI_11atlas_local6client17create_deployment5tests39___mock_MockDocker_DockerCreateContainer18___create_containerNtB7_12Expectations4calls_0Bh_
FN:190,_RNvMNtNtNtNtNtCscJhqz4rleTI_11atlas_local6client17create_deployment5tests38___mock_MockDocker_DockerStartContainer17___start_containerNtB2_5Rfunc8call_mut
FN:190,_RNvMs0_NtNtNtNtNtCscJhqz4rleTI_11atlas_local6client17create_deployment5tests38___mock_MockDocker_DockerStartContainer17___start_containerNtB5_7Matcher7matches
FN:190,_RNvMs4_NtNtNtNtNtCscJhqz4rleTI_11atlas_local6client17create_deployment5tests38___mock_MockDocker_DockerStartContainer17___start_containerNtB5_6Common15verify_sequence
FN:190,_RNvMs4_NtNtNtNtNtCscJhqz4rleTI_11atlas_local6client17create_deployment5tests38___mock_MockDocker_DockerStartContainer17___start_containerNtB5_6Common16satisfy_sequence
FN:190,_RNvMs4_NtNtNtNtNtCscJhqz4rleTI_11atlas_local6client17create_deployment5tests38___mock_MockDocker_DockerStartContainer17___start_containerNtB5_6Common4call
FN:190,_RNvMs4_NtNtNtNtNtCscJhqz4rleTI_11atlas_local6client17create_deployment5tests38___mock_MockDocker_DockerStartContainer17___start_containerNtB5_6Common7is_done
FN:190,_RNvMs4_NtNtNtNtNtCscJhqz4rleTI_11atlas_local6client17create_deployment5tests38___mock_MockDocker_DockerStartContainer17___start_containerNtB5_6Common7matches
FN:190,_RNvMs6_NtNtNtNtNtCscJhqz4rleTI_11atlas_local6client17create_deployment5tests38___mock_MockDocker_DockerStartContainer17___start_containerNtB5_11Expectation4call
FN:190,_RNvMs6_NtNtNtNtNtCscJhqz4rleTI_11atlas_local6client17create_deployment5tests38___mock_MockDocker_DockerStartContainer17___start_containerNtB5_11Expectation7is_done
FN:190,_RNvMs6_NtNtNtNtNtCscJhqz4rleTI_11atlas_local6client17create_deployment5tests38___mock_MockDocker_DockerStartContainer17___start_containerNtB5_11Expectation7matches
FN:190,_RNvMs8_NtNtNtNtNtCscJhqz4rleTI_11atlas_local6client17create_deployment5tests38___mock_MockDocker_DockerStartContainer17___start_containerNtB5_12Expectations3new
FN:190,_RNvMs8_NtNtNtNtNtCscJhqz4rleTI_11atlas_local6client17create_deployment5tests38___mock_MockDocker_DockerStartContainer17___start_containerNtB5_12Expectations6expect
FN:190,_RNvMsa_NtNtNtNtNtCscJhqz4rleTI_11atlas_local6client17create_deployment5tests38___mock_MockDocker_DockerStartContainer17___start_containerNtB5_12Expectations4call
FN:190,_RNvXs1_NtNtNtNtNtCscJhqz4rleTI_11atlas_local6client17create_deployment5tests38___mock_MockDocker_DockerStartContainer17___start_containerNtB5_7MatcherNtNtCsaNl6UpbT7bw_4core7default7Default7default
FN:190,_RNvXs2_NtNtNtNtNtCscJhqz4rleTI_11atlas_local6client17create_deployment5tests38___mock_MockDocker_DockerStartContainer17___start_containerNtB5_7MatcherNtNtCsaNl6UpbT7bw_4core3fmt7Display3fmt
FN:190,_RNvXs3_NtNtNtNtNtCscJhqz4rleTI_11atlas_local6client17create_deployment5tests38___mock_MockDocker_DockerStartContainer17___start_containerNtB5_6CommonNtNtCsaNl6UpbT7bw_4core7default7Default7default
FN:190,_RNvXs7_NtNtNtNtNtCscJhqz4rleTI_11atlas_local6client17create_deployment5tests38___mock_MockDocker_DockerStartContainer17___start_containerNtB5_11ExpectationNtNtCsaNl6UpbT7bw_4core7default7Default7default
FN:190,_RNvXs9_NtNtNtNtNtCscJhqz4rleTI_11atlas_local6client17create_deployment5tests38___mock_MockDocker_DockerStartContainer17___start_containerNtB5_12ExpectationsNtNtCsaNl6UpbT7bw_4core7default7Default7default
FN:190,_RNvXs_NtNtNtNtNtCscJhqz4rleTI_11atlas_local6client17create_deployment5tests38___mock_MockDocker_DockerStartContainer17___start_containerNtB4_5RfuncNtNtCsaNl6UpbT7bw_4core7default7Default7default
FN:190,_RINvMs4_NtNtNtNtNtCscJhqz4rleTI_11atlas_local6client17create_deployment5tests33___mock_MockDocker_DockerPullImage12___pull_imageNtB6_6Common4withINtNtCsaS4gknD0Sqc_10predicates3ord11EqPredicateReEB2j_EBg_
FN:190,_RINvMs4_NtNtNtNtNtCscJhqz4rleTI_11atlas_local6client17create_deployment5tests33___mock_MockDocker_DockerPullImage12___pull_imageNtB6_6Common5timesjEBg_
FN:190,_RINvMs6_NtNtNtNtNtCscJhqz4rleTI_11atlas_local6client17create_deployment5tests33___mock_MockDocker_DockerPullImage12___pull_imageNtB6_11Expectation4withINtNtCsaS4gknD0Sqc_10predicates3ord11EqPredicateReEB2p_EBg_
FN:190,_RINvMs6_NtNtNtNtNtCscJhqz4rleTI_11atlas_local6client17create_deployment5tests33___mock_MockDocker_DockerPullImage12___pull_imageNtB6_11Expectation5timesjEBg_
FN:190,_RINvMs6_NtNtNtNtNtCscJhqz4rleTI_11atlas_local6client17create_deployment5tests33___mock_MockDocker_DockerPullImage12___pull_imageNtB6_11Expectation9returningNCNCNvBa_s_22test_create_deployment00EBg_
FN:190,_RINvMs6_NtNtNtNtNtCscJhqz4rleTI_11atlas_local6client17create_deployment5tests33___mock_MockDocker_DockerPullImage12___pull_imageNtB6_11Expectation9returningNCNCNvBa_s_30test_create_deployment_timeout00EBg_
FN:190,_RINvMs6_NtNtNtNtNtCscJhqz4rleTI_11atlas_local6client17create_deployment5tests33___mock_MockDocker_DockerPullImage12___pull_imageNtB6_11Expectation9returningNCNCNvBa_s_39test_create_deployment_pull_image_error00EBg_
FN:190,_RINvMs6_NtNtNtNtNtCscJhqz4rleTI_11atlas_local6client17create_deployment5tests33___mock_MockDocker_DockerPullImage12___pull_imageNtB6_11Expectation9returningNCNCNvBa_s_40test_wait_for_healthy_deployment_retries00EBg_
FN:190,_RINvMs6_NtNtNtNtNtCscJhqz4rleTI_11atlas_local6client17create_deployment5tests33___mock_MockDocker_DockerPullImage12___pull_imageNtB6_11Expectation9returningNCNCNvBa_s_41test_wait_for_healthy_deployment_disabled00EBg_
FN:190,_RINvMs6_NtNtNtNtNtCscJhqz4rleTI_11atlas_local6client17create_deployment5tests33___mock_MockDocker_DockerPullImage12___pull_imageNtB6_11Expectation9returningNCNCNvBa_s_41test_wait_for_healthy_deployment_no_state00EBg_
FN:190,_RINvMs6_NtNtNtNtNtCscJhqz4rleTI_11atlas_local6client17create_deployment5tests33___mock_MockDocker_DockerPullImage12___pull_imageNtB6_11Expectation9returningNCNCNvBa_s_42test_wait_for_healthy_deployment_no_health00EBg_
FN:190,_RINvMs6_NtNtNtNtNtCscJhqz4rleTI_11atlas_local6client17create_deployment5tests33___mock_MockDocker_DockerPullImage12___pull_imageNtB6_11Expectation9returningNCNCNvBa_s_44test_create_deployment_start_container_error00EBg_
FN:190,_RINvMs6_NtNtNtNtNtCscJhqz4rleTI_11atlas_local6client17create_deployment5tests33___mock_MockDocker_DockerPullImage12___pull_imageNtB6_11Expectation9returningNCNCNvBa_s_45test_create_deployment_create_container_error00EBg_
FN:190,_RINvMs6_NtNtNtNtNtCscJhqz4rleTI_11atlas_local6client17create_deployment5tests33___mock_MockDocker_DockerPullImage12___pull_imageNtB6_11Expectation9returningNCNCNvBa_s_47test_create_deployment_container_already_exists00EBg_
FN:190,_RINvMs6_NtNtNtNtNtCscJhqz4rleTI_11atlas_local6client17create_deployment5tests33___mock_MockDocker_DockerPullImage12___pull_imageNtB6_11Expectation9returningNCNCNvBa_s_49test_wait_for_healthy_deployment_no_health_status00EBg_
FN:190,_RINvMs6_NtNtNtNtNtCscJhqz4rleTI_11atlas_local6client17create_deployment5tests33___mock_MockDocker_DockerPullImage12___pull_imageNtB6_11Expectation9returningNCNCNvBa_s_60test_create_deployment_wait_for_healthy_deployment_unhealthy00EBg_
FN:190,_RNCNvMs0_NtNtNtNtNtCscJhqz4rleTI_11atlas_local6client17create_deployment5tests33___mock_MockDocker_DockerPullImage12___pull_imageNtB7_7Matcher7matches0Bh_
FN:190,_RNCNvMsa_NtNtNtNtNtCscJhqz4rleTI_11atlas_local6client17create_deployment5tests33___mock_MockDocker_DockerPullImage12___pull_imageNtB7_12Expectations4call0Bh_
FN:190,_RNCNvMsa_NtNtNtNtNtCscJhqz4rleTI_11atlas_local6client17create_deployment5tests33___mock_MockDocker_DockerPullImage12___pull_imageNtB7_12Expectations4calls_0Bh_
FN:39,_RNvMNtNtCscJhqz4rleTI_11atlas_local6client17create_deploymentINtB4_6ClientNtNtB2_5tests10MockDockerE17create_deploymentB6_
FN:113,_RNvMs_NtNtCscJhqz4rleTI_11atlas_local6client17create_deploymentINtB6_6ClientNtNtB4_5tests10MockDockerE27wait_for_healthy_deploymentB8_
FN:190,_RNvXs5_NtNtNtNtNtCscJhqz4rleTI_11atlas_local6client17create_deployment5tests33___mock_MockDocker_DockerPullImage12___pull_imageNtB5_6CommonNtNtNtCsaNl6UpbT7bw_4core3ops4drop4Drop4drop
FN:190,_RNvXs5_NtNtNtNtNtCscJhqz4rleTI_11atlas_local6client17create_deployment5tests38___mock_MockDocker_DockerStartContainer17___start_containerNtB5_6CommonNtNtNtCsaNl6UpbT7bw_4core3ops4drop4Drop4drop
FN:190,_RNvXs5_NtNtNtNtNtCscJhqz4rleTI_11atlas_local6client17create_deployment5tests39___mock_MockDocker_DockerCreateContainer18___create_containerNtB5_6CommonNtNtNtCsaNl6UpbT7bw_4core3ops4drop4Drop4drop
FN:190,_RNvXs5_NtNtNtNtNtCscJhqz4rleTI_11atlas_local6client17create_deployment5tests40___mock_MockDocker_DockerInspectContainer19___inspect_containerNtB5_6CommonNtNtNtCsaNl6UpbT7bw_4core3ops4drop4Drop4drop
FN:190,_RINvMs4_NtNtNtNtNtCscJhqz4rleTI_11atlas_local6client17create_deployment5tests33___mock_MockDocker_DockerPullImage12___pull_imageNtB6_6Common5withfpEBg_
FN:190,_RINvMs4_NtNtNtNtNtCscJhqz4rleTI_11atlas_local6client17create_deployment5tests33___mock_MockDocker_DockerPullImage12___pull_imageNtB6_6Common8withf_stpEBg_
FN:190,_RINvMs4_NtNtNtNtNtCscJhqz4rleTI_11atlas_local6client17create_deployment5tests38___mock_MockDocker_DockerStartContainer17___start_containerNtB6_6Common5withfpEBg_
FN:190,_RINvMs4_NtNtNtNtNtCscJhqz4rleTI_11atlas_local6client17create_deployment5tests38___mock_MockDocker_DockerStartContainer17___start_containerNtB6_6Common8withf_stpEBg_
FN:190,_RINvMs4_NtNtNtNtNtCscJhqz4rleTI_11atlas_local6client17create_deployment5tests39___mock_MockDocker_DockerCreateContainer18___create_containerNtB6_6Common4withppEBg_
FN:190,_RINvMs4_NtNtNtNtNtCscJhqz4rleTI_11atlas_local6client17create_deployment5tests39___mock_MockDocker_DockerCreateContainer18___create_containerNtB6_6Common5withfpEBg_
FN:190,_RINvMs4_NtNtNtNtNtCscJhqz4rleTI_11atlas_local6client17create_deployment5tests39___mock_MockDocker_DockerCreateContainer18___create_containerNtB6_6Common8withf_stpEBg_
FN:190,_RINvMs4_NtNtNtNtNtCscJhqz4rleTI_11atlas_local6client17create_deployment5tests40___mock_MockDocker_DockerInspectContainer19___inspect_containerNtB6_6Common5withfpEBg_
FN:190,_RINvMs4_NtNtNtNtNtCscJhqz4rleTI_11atlas_local6client17create_deployment5tests40___mock_MockDocker_DockerInspectContainer19___inspect_containerNtB6_6Common8withf_stpEBg_
FN:190,_RINvMs6_NtNtNtNtNtCscJhqz4rleTI_11atlas_local6client17create_deployment5tests33___mock_MockDocker_DockerPullImage12___pull_imageNtB6_11Expectation11return_oncepEBg_
FN:190,_RINvMs6_NtNtNtNtNtCscJhqz4rleTI_11atlas_local6client17create_deployment5tests33___mock_MockDocker_DockerPullImage12___pull_imageNtB6_11Expectation12return_constpEBg_
FN:190,_RINvMs6_NtNtNtNtNtCscJhqz4rleTI_11atlas_local6client17create_deployment5tests33___mock_MockDocker_DockerPullImage12___pull_imageNtB6_11Expectation12returning_stpEBg_
FN:190,_RINvMs6_NtNtNtNtNtCscJhqz4rleTI_11atlas_local6client17create_deployment5tests33___mock_MockDocker_DockerPullImage12___pull_imageNtB6_11Expectation14return_once_stpEBg_
FN:190,_RINvMs6_NtNtNtNtNtCscJhqz4rleTI_11atlas_local6client17create_deployment5tests33___mock_MockDocker_DockerPullImage12___pull_imageNtB6_11Expectation15return_const_stpEBg_
FN:190,_RINvMs6_NtNtNtNtNtCscJhqz4rleTI_11atlas_local6client17create_deployment5tests33___mock_MockDocker_DockerPullImage12___pull_imageNtB6_11Expectation5withfpEBg_
FN:190,_RINvMs6_NtNtNtNtNtCscJhqz4rleTI_11atlas_local6client17create_deployment5tests33___mock_MockDocker_DockerPullImage12___pull_imageNtB6_11Expectation8withf_stpEBg_
FN:190,_RINvMs6_NtNtNtNtNtCscJhqz4rleTI_11atlas_local6client17create_deployment5tests38___mock_MockDocker_DockerStartContainer17___start_containerNtB6_11Expectation11return_oncepEBg_
FN:190,_RINvMs6_NtNtNtNtNtCscJhqz4rleTI_11atlas_local6client17create_deployment5tests38___mock_MockDocker_DockerStartContainer17___start_containerNtB6_11Expectation12return_constpEBg_
FN:190,_RINvMs6_NtNtNtNtNtCscJhqz4rleTI_11atlas_local6client17create_deployment5tests38___mock_MockDocker_DockerStartContainer17___start_containerNtB6_11Expectation12returning_stpEBg_
FN:190,_RINvMs6_NtNtNtNtNtCscJhqz4rleTI_11atlas_local6client17create_deployment5tests38___mock_MockDocker_DockerStartContainer17___start_containerNtB6_11Expectation14return_once_stpEBg_
FN:190,_RINvMs6_NtNtNtNtNtCscJhqz4rleTI_11atlas_local6client17create_deployment5tests38___mock_MockDocker_DockerStartContainer17___start_containerNtB6_11Expectation15return_const_stpEBg_
FN:190,_RINvMs6_NtNtNtNtNtCscJhqz4rleTI_11atlas_local6client17create_deployment5tests38___mock_MockDocker_DockerStartContainer17___start_containerNtB6_11Expectation5withfpEBg_
FN:190,_RINvMs6_NtNtNtNtNtCscJhqz4rleTI_11atlas_local6client17create_deployment5tests38___mock_MockDocker_DockerStartContainer17___start_containerNtB6_11Expectation8withf_stpEBg_
FN:190,_RINvMs6_NtNtNtNtNtCscJhqz4rleTI_11atlas_local6client17create_deployment5tests39___mock_MockDocker_DockerCreateContainer18___create_containerNtB6_11Expectation11return_oncepEBg_
FN:190,_RINvMs6_NtNtNtNtNtCscJhqz4rleTI_11atlas_local6client17create_deployment5tests39___mock_MockDocker_DockerCreateContainer18___create_containerNtB6_11Expectation12return_constpEBg_
FN:190,_RINvMs6_NtNtNtNtNtCscJhqz4rleTI_11atlas_local6client17create_deployment5tests39___mock_MockDocker_DockerCreateContainer18___create_containerNtB6_11Expectation12returning_stpEBg_
FN:190,_RINvMs6_NtNtNtNtNtCscJhqz4rleTI_11atlas_local6client17create_deployment5tests39___mock_MockDocker_DockerCreateContainer18___create_containerNtB6_11Expectation14return_once_stpEBg_
FN:190,_RINvMs6_NtNtNtNtNtCscJhqz4rleTI_11atlas_local6client17create_deployment5tests39___mock_MockDocker_DockerCreateContainer18___create_containerNtB6_11Expectation15return_const_stpEBg_
FN:190,_RINvMs6_NtNtNtNtNtCscJhqz4rleTI_11atlas_local6client17create_deployment5tests39___mock_MockDocker_DockerCreateContainer18___create_containerNtB6_11Expectation4withppEBg_
FN:190,_RINvMs6_NtNtNtNtNtCscJhqz4rleTI_11atlas_local6client17create_deployment5tests39___mock_MockDocker_DockerCreateContainer18___create_containerNtB6_11Expectation5withfpEBg_
FN:190,_RINvMs6_NtNtNtNtNtCscJhqz4rleTI_11atlas_local6client17create_deployment5tests39___mock_MockDocker_DockerCreateContainer18___create_containerNtB6_11Expectation8withf_stpEBg_
FN:190,_RINvMs6_NtNtNtNtNtCscJhqz4rleTI_11atlas_local6client17create_deployment5tests40___mock_MockDocker_DockerInspectContainer19___inspect_containerNtB6_11Expectation11return_oncepEBg_
FN:190,_RINvMs6_NtNtNtNtNtCscJhqz4rleTI_11atlas_local6client17create_deployment5tests40___mock_MockDocker_DockerInspectContainer19___inspect_containerNtB6_11Expectation12return_constpEBg_
FN:190,_RINvMs6_NtNtNtNtNtCscJhqz4rleTI_11atlas_local6client17create_deployment5tests40___mock_MockDocker_DockerInspectContainer19___inspect_containerNtB6_11Expectation12returning_stpEBg_
FN:190,_RINvMs6_NtNtNtNtNtCscJhqz4rleTI_11atlas_local6client17create_deployment5tests40___mock_MockDocker_DockerInspectContainer19___inspect_containerNtB6_11Expectation14return_once_stpEBg_
FN:190,_RINvMs6_NtNtNtNtNtCscJhqz4rleTI_11atlas_local6client17create_deployment5tests40___mock_MockDocker_DockerInspectContainer19___inspect_containerNtB6_11Expectation15return_const_stpEBg_
FN:190,_RINvMs6_NtNtNtNtNtCscJhqz4rleTI_11atlas_local6client17create_deployment5tests40___mock_MockDocker_DockerInspectContainer19___inspect_containerNtB6_11Expectation5withfpEBg_
FN:190,_RINvMs6_NtNtNtNtNtCscJhqz4rleTI_11atlas_local6client17create_deployment5tests40___mock_MockDocker_DockerInspectContainer19___inspect_containerNtB6_11Expectation8withf_stpEBg_
FN:190,_RNCINvMs6_NtNtNtNtNtCscJhqz4rleTI_11atlas_local6client17create_deployment5tests33___mock_MockDocker_DockerPullImage12___pull_imageNtB8_11Expectation12return_constpE0Bi_
FN:190,_RNCINvMs6_NtNtNtNtNtCscJhqz4rleTI_11atlas_local6client17create_deployment5tests33___mock_MockDocker_DockerPullImage12___pull_imageNtB8_11Expectation15return_const_stpE0Bi_
FN:190,_RNCINvMs6_NtNtNtNtNtCscJhqz4rleTI_11atlas_local6client17create_deployment5tests38___mock_MockDocker_DockerStartContainer17___start_containerNtB8_11Expectation12return_constpE0Bi_
FN:190,_RNCINvMs6_NtNtNtNtNtCscJhqz4rleTI_11atlas_local6client17create_deployment5tests38___mock_MockDocker_DockerStartContainer17___start_containerNtB8_11Expectation15return_const_stpE0Bi_
FN:190,_RNCINvMs6_NtNtNtNtNtCscJhqz4rleTI_11atlas_local6client17create_deployment5tests39___mock_MockDocker_DockerCreateContainer18___create_containerNtB8_11Expectation12return_constpE0Bi_
FN:190,_RNCINvMs6_NtNtNtNtNtCscJhqz4rleTI_11atlas_local6client17create_deployment5tests39___mock_MockDocker_DockerCreateContainer18___create_containerNtB8_11Expectation15return_const_stpE0Bi_
FN:190,_RNCINvMs6_NtNtNtNtNtCscJhqz4rleTI_11atlas_local6client17create_deployment5tests40___mock_MockDocker_DockerInspectContainer19___inspect_containerNtB8_11Expectation12return_constpE0Bi_
FN:190,_RNCINvMs6_NtNtNtNtNtCscJhqz4rleTI_11atlas_local6client17create_deployment5tests40___mock_MockDocker_DockerInspectContainer19___inspect_containerNtB8_11Expectation15return_const_stpE0Bi_
FN:190,_RNvMs0_NtNtNtCscJhqz4rleTI_11atlas_local6client17create_deployment5testsNtB5_26MockDocker_DockerPullImage10checkpoint
FN:190,_RNvMs2_NtNtNtCscJhqz4rleTI_11atlas_local6client17create_deployment5testsNtB5_32MockDocker_DockerCreateContainer10checkpoint
FN:190,_RNvMs4_NtNtNtCscJhqz4rleTI_11atlas_local6client17create_deployment5testsNtB5_31MockDocker_DockerStartContainer10checkpoint
FN:190,_RNvMs4_NtNtNtNtNtCscJhqz4rleTI_11atlas_local6client17create_deployment5tests33___mock_MockDocker_DockerPullImage12___pull_imageNtB5_6Common11in_sequence
FN:190,_RNvMs4_NtNtNtNtNtCscJhqz4rleTI_11atlas_local6client17create_deployment5tests33___mock_MockDocker_DockerPullImage12___pull_imageNtB5_6Common5never
FN:190,_RNvMs4_NtNtNtNtNtCscJhqz4rleTI_11atlas_local6client17create_deployment5tests38___mock_MockDocker_DockerStartContainer17___start_containerNtB5_6Common11in_sequence
FN:190,_RNvMs4_NtNtNtNtNtCscJhqz4rleTI_11atlas_local6client17create_deployment5tests38___mock_MockDocker_DockerStartContainer17___start_containerNtB5_6Common5never
FN:190,_RNvMs4_NtNtNtNtNtCscJhqz4rleTI_11atlas_local6client17create_deployment5tests39___mock_MockDocker_DockerCreateContainer18___create_containerNtB5_6Common11in_sequence
FN:190,_RNvMs4_NtNtNtNtNtCscJhqz4rleTI_11atlas_local6client17create_deployment5tests39___mock_MockDocker_DockerCreateContainer18___create_containerNtB5_6Common5never
FN:190,_RNvMs4_NtNtNtNtNtCscJhqz4rleTI_11atlas_local6client17create_deployment5tests40___mock_MockDocker_DockerInspectContainer19___inspect_containerNtB5_6Common11in_sequence
FN:190,_RNvMs4_NtNtNtNtNtCscJhqz4rleTI_11atlas_local6client17create_deployment5tests40___mock_MockDocker_DockerInspectContainer19___inspect_containerNtB5_6Common5never
FN:190,_RNvMs6_NtNtNtCscJhqz4rleTI_11atlas_local6client17create_deployment5testsNtB5_33MockDocker_DockerInspectContainer10checkpoint
FN:190,_RNvMs6_NtNtNtNtNtCscJhqz4rleTI_11atlas_local6client17create_deployment5tests33___mock_MockDocker_DockerPullImage12___pull_imageNtB5_11Expectation11in_sequence
FN:190,_RNvMs6_NtNtNtNtNtCscJhqz4rleTI_11atlas_local6client17create_deployment5tests33___mock_MockDocker_DockerPullImage12___pull_imageNtB5_11Expectation3new
FN:190,_RNvMs6_NtNtNtNtNtCscJhqz4rleTI_11atlas_local6client17create_deployment5tests33___mock_MockDocker_DockerPullImage12___pull_imageNtB5_11Expectation4once
FN:190,_RNvMs6_NtNtNtNtNtCscJhqz4rleTI_11atlas_local6client17create_deployment5tests33___mock_MockDocker_DockerPullImage12___pull_imageNtB5_11Expectation5never
FN:190,_RNvMs6_NtNtNtNtNtCscJhqz4rleTI_11atlas_local6client17create_deployment5tests38___mock_MockDocker_DockerStartContainer17___start_containerNtB5_11Expectation11in_sequence
FN:190,_RNvMs6_NtNtNtNtNtCscJhqz4rleTI_11atlas_local6client17create_deployment5tests38___mock_MockDocker_DockerStartContainer17___start_containerNtB5_11Expectation3new
FN:190,_RNvMs6_NtNtNtNtNtCscJhqz4rleTI_11atlas_local6client17create_deployment5tests38___mock_MockDocker_DockerStartContainer17___start_containerNtB5_11Expectation4once
FN:190,_RNvMs6_NtNtNtNtNtCscJhqz4rleTI_11atlas_local6client17create_deployment5tests38___mock_MockDocker_DockerStartContainer17___start_containerNtB5_11Expectation5never
FN:190,_RNvMs6_NtNtNtNtNtCscJhqz4rleTI_11atlas_local6client17create_deployment5tests39___mock_MockDocker_DockerCreateContainer18___create_containerNtB5_11Expectation11in_sequence
FN:190,_RNvMs6_NtNtNtNtNtCscJhqz4rleTI_11atlas_local6client17create_deployment5tests39___mock_MockDocker_DockerCreateContainer18___create_containerNtB5_11Expectation3new
FN:190,_RNvMs6_NtNtNtNtNtCscJhqz4rleTI_11atlas_local6client17create_deployment5tests39___mock_MockDocker_DockerCreateContainer18___create_containerNtB5_11Expectation4once
FN:190,_RNvMs6_NtNtNtNtNtCscJhqz4rleTI_11atlas_local6client17create_deployment5tests39___mock_MockDocker_DockerCreateContainer18___create_containerNtB5_11Expectation5never
FN:190,_RNvMs6_NtNtNtNtNtCscJhqz4rleTI_11atlas_local6client17create_deployment5tests40___mock_MockDocker_DockerInspectContainer19___inspect_containerNtB5_11Expectation11in_sequence
FN:190,_RNvMs6_NtNtNtNtNtCscJhqz4rleTI_11atlas_local6client17create_deployment5tests40___mock_MockDocker_DockerInspectContainer19___inspect_containerNtB5_11Expectation3new
FN:190,_RNvMs6_NtNtNtNtNtCscJhqz4rleTI_11atlas_local6client17create_deployment5tests40___mock_MockDocker_DockerInspectContainer19___inspect_containerNtB5_11Expectation4once
FN:190,_RNvMs6_NtNtNtNtNtCscJhqz4rleTI_11atlas_local6client17create_deployment5tests40___mock_MockDocker_DockerInspectContainer19___inspect_containerNtB5_11Expectation5never
FN:190,_RNvMs7_NtNtNtCscJhqz4rleTI_11atlas_local6client17create_deployment5testsNtB5_10MockDocker10checkpoint
FN:190,_RNvMs8_NtNtNtNtNtCscJhqz4rleTI_11atlas_local6client17create_deployment5tests33___mock_MockDocker_DockerPullImage12___pull_imageNtB5_12Expectations10checkpoint
FN:190,_RNvMs8_NtNtNtNtNtCscJhqz4rleTI_11atlas_local6client17create_deployment5tests38___mock_MockDocker_DockerStartContainer17___start_containerNtB5_12Expectations10checkpoint
FN:190,_RNvMs8_NtNtNtNtNtCscJhqz4rleTI_11atlas_local6client17create_deployment5tests39___mock_MockDocker_DockerCreateContainer18___create_containerNtB5_12Expectations10checkpoint
FN:190,_RNvMs8_NtNtNtNtNtCscJhqz4rleTI_11atlas_local6client17create_deployment5tests40___mock_MockDocker_DockerInspectContainer19___inspect_containerNtB5_12Expectations10checkpoint
FN:52,_RNCNCNvMNtNtCscJhqz4rleTI_11atlas_local6client17create_deploymentINtB8_6ClientNtNtB6_5tests10MockDockerE17create_deployment00Ba_
FN:72,_RNCNCNvMNtNtCscJhqz4rleTI_11atlas_local6client17create_deploymentINtB8_6ClientNtNtB6_5tests10MockDockerE17create_deployment0s0_0Ba_
FN:97,_RNCNCNvMNtNtCscJhqz4rleTI_11atlas_local6client17create_deploymentINtB8_6ClientNtNtB6_5tests10MockDockerE17create_deployment0s1_0Ba_
FN:52,_RNCNCNvMNtNtCscJhqz4rleTI_11atlas_local6client17create_deploymentINtB8_6ClientNtNtB6_5tests10MockDockerE17create_deployment0s_0Ba_
FN:127,_RNCNCNvMs_NtNtCscJhqz4rleTI_11atlas_local6client17create_deploymentINtBa_6ClientNtNtB8_5tests10MockDockerE27wait_for_healthy_deployment0s0_0Bc_
FN:42,_RNCNvMNtNtCscJhqz4rleTI_11atlas_local6client17create_deploymentINtB6_6ClientNtNtB4_5tests10MockDockerE17create_deployment0B8_
FN:116,_RNCNvMs_NtNtCscJhqz4rleTI_11atlas_local6client17create_deploymentINtB8_6ClientNtNtB6_5tests10MockDockerE27wait_for_healthy_deployment0Ba_
FN:190,_RINvMs4_NtNtNtNtNtCscJhqz4rleTI_11atlas_local6client17create_deployment5tests40___mock_MockDocker_DockerInspectContainer19___inspect_containerNtB6_6Common4withINtNtCsaS4gknD0Sqc_10predicates3ord11EqPredicateReEIB2y_INtNtCsaNl6UpbT7bw_4core6option6OptionNtNtCsiAmkw3NBFjt_13bollard_stubs16query_parameters23InspectContainerOptionsEEEBg_
FN:190,_RINvMs4_NtNtNtNtNtCscJhqz4rleTI_11atlas_local6client17create_deployment5tests40___mock_MockDocker_DockerInspectContainer19___inspect_containerNtB6_6Common5timesjEBg_
FN:190,_RINvMs6_NtNtNtNtNtCscJhqz4rleTI_11atlas_local6client17create_deployment5tests40___mock_MockDocker_DockerInspectContainer19___inspect_containerNtB6_11Expectation4withINtNtCsaS4gknD0Sqc_10predicates3ord11EqPredicateReEIB2E_INtNtCsaNl6UpbT7bw_4core6option6OptionNtNtCsiAmkw3NBFjt_13bollard_stubs16query_parameters23InspectContainerOptionsEEEBg_
FN:190,_RINvMs6_NtNtNtNtNtCscJhqz4rleTI_11atlas_local6client17create_deployment5tests40___mock_MockDocker_DockerInspectContainer19___inspect_containerNtB6_11Expectation5timesjEBg_
FN:190,_RINvMs6_NtNtNtNtNtCscJhqz4rleTI_11atlas_local6client17create_deployment5tests40___mock_MockDocker_DockerInspectContainer19___inspect_containerNtB6_11Expectation9returningNCNCNvBa_s_22test_create_deployment0s1_0EBg_
FN:190,_RINvMs6_NtNtNtNtNtCscJhqz4rleTI_11atlas_local6client17create_deployment5tests40___mock_MockDocker_DockerInspectContainer19___inspect_containerNtB6_11Expectation9returningNCNCNvBa_s_30test_create_deployment_timeout0s1_0EBg_
FN:190,_RINvMs6_NtNtNtNtNtCscJhqz4rleTI_11atlas_local6client17create_deployment5tests40___mock_MockDocker_DockerInspectContainer19___inspect_containerNtB6_11Expectation9returningNCNCNvBa_s_40test_wait_for_healthy_deployment_retries0s1_0EBg_
FN:190,_RINvMs6_NtNtNtNtNtCscJhqz4rleTI_11atlas_local6client17create_deployment5tests40___mock_MockDocker_DockerInspectContainer19___inspect_containerNtB6_11Expectation9returningNCNCNvBa_s_40test_wait_for_healthy_deployment_retries0s2_0EBg_
FN:190,_RINvMs6_NtNtNtNtNtCscJhqz4rleTI_11atlas_local6client17create_deployment5tests40___mock_MockDocker_DockerInspectContainer19___inspect_containerNtB6_11Expectation9returningNCNCNvBa_s_41test_wait_for_healthy_deployment_disabled0s1_0EBg_
FN:190,_RINvMs6_NtNtNtNtNtCscJhqz4rleTI_11atlas_local6client17create_deployment5tests40___mock_MockDocker_DockerInspectContainer19___inspect_containerNtB6_11Expectation9returningNCNCNvBa_s_41test_wait_for_healthy_deployment_no_state0s1_0EBg_
FN:190,_RINvMs6_NtNtNtNtNtCscJhqz4rleTI_11atlas_local6client17create_deployment5tests40___mock_MockDocker_DockerInspectContainer19___inspect_containerNtB6_11Expectation9returningNCNCNvBa_s_42test_wait_for_healthy_deployment_no_health0s1_0EBg_
FN:190,_RINvMs6_NtNtNtNtNtCscJhqz4rleTI_11atlas_local6client17create_deployment5tests40___mock_MockDocker_DockerInspectContainer19___inspect_containerNtB6_11Expectation9returningNCNCNvBa_s_49test_wait_for_healthy_deployment_no_health_status0s1_0EBg_
FN:190,_RINvMs6_NtNtNtNtNtCscJhqz4rleTI_11atlas_local6client17create_deployment5tests40___mock_MockDocker_DockerInspectContainer19___inspect_containerNtB6_11Expectation9returningNCNCNvBa_s_60test_create_deployment_wait_for_healthy_deployment_unhealthy0s1_0EBg_
FN:190,_RNCNvMs0_NtNtNtNtNtCscJhqz4rleTI_11atlas_local6client17create_deployment5tests40___mock_MockDocker_DockerInspectContainer19___inspect_containerNtB7_7Matcher7matches0Bh_
FN:190,_RNCNvMsa_NtNtNtNtNtCscJhqz4rleTI_11atlas_local6client17create_deployment5tests40___mock_MockDocker_DockerInspectContainer19___inspect_containerNtB7_12Expectations4call0Bh_
FN:190,_RNCNvMsa_NtNtNtNtNtCscJhqz4rleTI_11atlas_local6client17create_deployment5tests40___mock_MockDocker_DockerInspectContainer19___inspect_containerNtB7_12Expectations4calls_0Bh_
FN:190,_RINvMs4_NtNtNtNtNtCscJhqz4rleTI_11atlas_local6client17create_deployment5tests38___mock_MockDocker_DockerStartContainer17___start_containerNtB6_6Common4withINtNtCsaS4gknD0Sqc_10predicates3ord11EqPredicateReEIB2u_INtNtCsaNl6UpbT7bw_4core6option6OptionNtNtCsiAmkw3NBFjt_13bollard_stubs16query_parameters21StartContainerOptionsEEEBg_
FN:190,_RINvMs4_NtNtNtNtNtCscJhqz4rleTI_11atlas_local6client17create_deployment5tests38___mock_MockDocker_DockerStartContainer17___start_containerNtB6_6Common5timesjEBg_
FN:190,_RINvMs6_NtNtNtNtNtCscJhqz4rleTI_11atlas_local6client17create_deployment5tests38___mock_MockDocker_DockerStartContainer17___start_containerNtB6_11Expectation4withINtNtCsaS4gknD0Sqc_10predicates3ord11EqPredicateReEIB2A_INtNtCsaNl6UpbT7bw_4core6option6OptionNtNtCsiAmkw3NBFjt_13bollard_stubs16query_parameters21StartContainerOptionsEEEBg_
FN:190,_RINvMs6_NtNtNtNtNtCscJhqz4rleTI_11atlas_local6client17create_deployment5tests38___mock_MockDocker_DockerStartContainer17___start_containerNtB6_11Expectation5timesjEBg_
FN:190,_RINvMs6_NtNtNtNtNtCscJhqz4rleTI_11atlas_local6client17create_deployment5tests38___mock_MockDocker_DockerStartContainer17___start_containerNtB6_11Expectation9returningNCNCNvBa_s_22test_create_deployment0s0_0EBg_
FN:190,_RINvMs6_NtNtNtNtNtCscJhqz4rleTI_11atlas_local6client17create_deployment5tests38___mock_MockDocker_DockerStartContainer17___start_containerNtB6_11Expectation9returningNCNCNvBa_s_30test_create_deployment_timeout0s0_0EBg_
FN:190,_RINvMs6_NtNtNtNtNtCscJhqz4rleTI_11atlas_local6client17create_deployment5tests38___mock_MockDocker_DockerStartContainer17___start_containerNtB6_11Expectation9returningNCNCNvBa_s_40test_wait_for_healthy_deployment_retries0s0_0EBg_
FN:190,_RINvMs6_NtNtNtNtNtCscJhqz4rleTI_11atlas_local6client17create_deployment5tests38___mock_MockDocker_DockerStartContainer17___start_containerNtB6_11Expectation9returningNCNCNvBa_s_41test_wait_for_healthy_deployment_disabled0s0_0EBg_
FN:190,_RINvMs6_NtNtNtNtNtCscJhqz4rleTI_11atlas_local6client17create_deployment5tests38___mock_MockDocker_DockerStartContainer17___start_containerNtB6_11Expectation9returningNCNCNvBa_s_41test_wait_for_healthy_deployment_no_state0s0_0EBg_
FN:190,_RINvMs6_NtNtNtNtNtCscJhqz4rleTI_11atlas_local6client17create_deployment5tests38___mock_MockDocker_DockerStartContainer17___start_containerNtB6_11Expectation9returningNCNCNvBa_s_42test_wait_for_healthy_deployment_no_health0s0_0EBg_
FN:190,_RINvMs6_NtNtNtNtNtCscJhqz4rleTI_11atlas_local6client17create_deployment5tests38___mock_MockDocker_DockerStartContainer17___start_containerNtB6_11Expectation9returningNCNCNvBa_s_44test_create_deployment_start_container_error0s0_0EBg_
FN:190,_RINvMs6_NtNtNtNtNtCscJhqz4rleTI_11atlas_local6client17create_deployment5tests38___mock_MockDocker_DockerStartContainer17___start_containerNtB6_11Expectation9returningNCNCNvBa_s_49test_wait_for_healthy_deployment_no_health_status0s0_0EBg_
FN:190,_RINvMs6_NtNtNtNtNtCscJhqz4rleTI_11atlas_local6client17create_deployment5tests38___mock_MockDocker_DockerStartContainer17___start_containerNtB6_11Expectation9returningNCNCNvBa_s_60test_create_deployment_wait_for_healthy_deployment_unhealthy0s0_0EBg_
FN:190,_RNCNvMs0_NtNtNtNtNtCscJhqz4rleTI_11atlas_local6client17create_deployment5tests38___mock_MockDocker_DockerStartContainer17___start_containerNtB7_7Matcher7matches0Bh_
FN:190,_RNCNvMsa_NtNtNtNtNtCscJhqz4rleTI_11atlas_local6client17create_deployment5tests38___mock_MockDocker_DockerStartContainer17___start_containerNtB7_12Expectations4call0Bh_
FN:190,_RNCNvMsa_NtNtNtNtNtCscJhqz4rleTI_11atlas_local6client17create_deployment5tests38___mock_MockDocker_DockerStartContainer17___start_containerNtB7_12Expectations4calls_0Bh_
FNDA:1,_RNCNCNvNtNtNtCscJhqz4rleTI_11atlas_local6client17create_deployment5testss_22test_create_deployment00Bb_
FNDA:1,_RNCNCNvNtNtNtCscJhqz4rleTI_11atlas_local6client17create_deployment5testss_22test_create_deployment0s0_0Bb_
FNDA:2,_RNCNCNvNtNtNtCscJhqz4rleTI_11atlas_local6client17create_deployment5testss_22test_create_deployment0s1_0Bb_
FNDA:1,_RNCNCNvNtNtNtCscJhqz4rleTI_11atlas_local6client17create_deployment5testss_22test_create_deployment0s_0Bb_
FNDA:1,_RNCNCNvNtNtNtCscJhqz4rleTI_11atlas_local6client17create_deployment5testss_30test_create_deployment_timeout00Bb_
FNDA:1,_RNCNCNvNtNtNtCscJhqz4rleTI_11atlas_local6client17create_deployment5testss_30test_create_deployment_timeout0s0_0Bb_
FNDA:1,_RNCNCNvNtNtNtCscJhqz4rleTI_11atlas_local6client17create_deployment5testss_30test_create_deployment_timeout0s1_0Bb_
FNDA:1,_RNCNCNvNtNtNtCscJhqz4rleTI_11atlas_local6client17create_deployment5testss_30test_create_deployment_timeout0s_0Bb_
FNDA:1,_RNCNCNvNtNtNtCscJhqz4rleTI_11atlas_local6client17create_deployment5testss_39test_create_deployment_pull_image_error00Bb_
FNDA:1,_RNCNCNvNtNtNtCscJhqz4rleTI_11atlas_local6client17create_deployment5testss_40test_wait_for_healthy_deployment_retries00Bb_
FNDA:1,_RNCNCNvNtNtNtCscJhqz4rleTI_11atlas_local6client17create_deployment5testss_40test_wait_for_healthy_deployment_retries0s0_0Bb_
FNDA:1,_RNCNCNvNtNtNtCscJhqz4rleTI_11atlas_local6client17create_deployment5testss_40test_wait_for_healthy_deployment_retries0s1_0Bb_
FNDA:2,_RNCNCNvNtNtNtCscJhqz4rleTI_11atlas_local6client17create_deployment5testss_40test_wait_for_healthy_deployment_retries0s2_0Bb_
FNDA:1,_RNCNCNvNtNtNtCscJhqz4rleTI_11atlas_local6client17create_deployment5testss_40test_wait_for_healthy_deployment_retries0s_0Bb_
FNDA:1,_RNCNCNvNtNtNtCscJhqz4rleTI_11atlas_local6client17create_deployment5testss_41test_wait_for_healthy_deployment_disabled00Bb_
FNDA:1,_RNCNCNvNtNtNtCscJhqz4rleTI_11atlas_local6client17create_deployment5testss_41test_wait_for_healthy_deployment_disabled0s0_0Bb_
FNDA:1,_RNCNCNvNtNtNtCscJhqz4rleTI_11atlas_local6client17create_deployment5testss_41test_wait_for_healthy_deployment_disabled0s1_0Bb_
FNDA:1,_RNCNCNvNtNtNtCscJhqz4rleTI_11atlas_local6client17create_deployment5testss_41test_wait_for_healthy_deployment_disabled0s_0Bb_
FNDA:1,_RNCNCNvNtNtNtCscJhqz4rleTI_11atlas_local6client17create_deployment5testss_41test_wait_for_healthy_deployment_no_state00Bb_
FNDA:1,_RNCNCNvNtNtNtCscJhqz4rleTI_11atlas_local6client17create_deployment5testss_41test_wait_for_healthy_deployment_no_state0s0_0Bb_
FNDA:1,_RNCNCNvNtNtNtCscJhqz4rleTI_11atlas_local6client17create_deployment5testss_41test_wait_for_healthy_deployment_no_state0s1_0Bb_
FNDA:1,_RNCNCNvNtNtNtCscJhqz4rleTI_11atlas_local6client17create_deployment5testss_41test_wait_for_healthy_deployment_no_state0s_0Bb_
FNDA:1,_RNCNCNvNtNtNtCscJhqz4rleTI_11atlas_local6client17create_deployment5testss_42test_wait_for_healthy_deployment_no_health00Bb_
FNDA:1,_RNCNCNvNtNtNtCscJhqz4rleTI_11atlas_local6client17create_deployment5testss_42test_wait_for_healthy_deployment_no_health0s0_0Bb_
FNDA:1,_RNCNCNvNtNtNtCscJhqz4rleTI_11atlas_local6client17create_deployment5testss_42test_wait_for_healthy_deployment_no_health0s1_0Bb_
FNDA:1,_RNCNCNvNtNtNtCscJhqz4rleTI_11atlas_local6client17create_deployment5testss_42test_wait_for_healthy_deployment_no_health0s_0Bb_
FNDA:1,_RNCNCNvNtNtNtCscJhqz4rleTI_11atlas_local6client17create_deployment5testss_44test_create_deployment_start_container_error00Bb_
FNDA:1,_RNCNCNvNtNtNtCscJhqz4rleTI_11atlas_local6client17create_deployment5testss_44test_create_deployment_start_container_error0s0_0Bb_
FNDA:1,_RNCNCNvNtNtNtCscJhqz4rleTI_11atlas_local6client17create_deployment5testss_44test_create_deployment_start_container_error0s_0Bb_
FNDA:1,_RNCNCNvNtNtNtCscJhqz4rleTI_11atlas_local6client17create_deployment5testss_45test_create_deployment_create_container_error00Bb_
FNDA:1,_RNCNCNvNtNtNtCscJhqz4rleTI_11atlas_local6client17create_deployment5testss_45test_create_deployment_create_container_error0s_0Bb_
FNDA:1,_RNCNCNvNtNtNtCscJhqz4rleTI_11atlas_local6client17create_deployment5testss_47test_create_deployment_container_already_exists00Bb_
FNDA:1,_RNCNCNvNtNtNtCscJhqz4rleTI_11atlas_local6client17create_deployment5testss_47test_create_deployment_container_already_exists0s_0Bb_
FNDA:1,_RNCNCNvNtNtNtCscJhqz4rleTI_11atlas_local6client17create_deployment5testss_49test_wait_for_healthy_deployment_no_health_status00Bb_
FNDA:1,_RNCNCNvNtNtNtCscJhqz4rleTI_11atlas_local6client17create_deployment5testss_49test_wait_for_healthy_deployment_no_health_status0s0_0Bb_
FNDA:1,_RNCNCNvNtNtNtCscJhqz4rleTI_11atlas_local6client17create_deployment5testss_49test_wait_for_healthy_deployment_no_health_status0s1_0Bb_
FNDA:1,_RNCNCNvNtNtNtCscJhqz4rleTI_11atlas_local6client17create_deployment5testss_49test_wait_for_healthy_deployment_no_health_status0s_0Bb_
FNDA:1,_RNCNCNvNtNtNtCscJhqz4rleTI_11atlas_local6client17create_deployment5testss_60test_create_deployment_wait_for_healthy_deployment_unhealthy00Bb_
FNDA:1,_RNCNCNvNtNtNtCscJhqz4rleTI_11atlas_local6client17create_deployment5testss_60test_create_deployment_wait_for_healthy_deployment_unhealthy0s0_0Bb_
FNDA:1,_RNCNCNvNtNtNtCscJhqz4rleTI_11atlas_local6client17create_deployment5testss_60test_create_deployment_wait_for_healthy_deployment_unhealthy0s1_0Bb_
FNDA:1,_RNCNCNvNtNtNtCscJhqz4rleTI_11atlas_local6client17create_deployment5testss_60test_create_deployment_wait_for_healthy_deployment_unhealthy0s_0Bb_
FNDA:1,_RNCNvNtNtNtCscJhqz4rleTI_11atlas_local6client17create_deployment5testss_22test_create_deployment0B9_
FNDA:1,_RNCNvNtNtNtCscJhqz4rleTI_11atlas_local6client17create_deployment5testss_30test_create_deployment_timeout0B9_
FNDA:1,_RNCNvNtNtNtCscJhqz4rleTI_11atlas_local6client17create_deployment5testss_39test_create_deployment_pull_image_error0B9_
FNDA:1,_RNCNvNtNtNtCscJhqz4rleTI_11atlas_local6client17create_deployment5testss_40test_wait_for_healthy_deployment_retries0B9_
FNDA:1,_RNCNvNtNtNtCscJhqz4rleTI_11atlas_local6client17create_deployment5testss_41test_wait_for_healthy_deployment_disabled0B9_
FNDA:1,_RNCNvNtNtNtCscJhqz4rleTI_11atlas_local6client17create_deployment5testss_41test_wait_for_healthy_deployment_no_state0B9_
FNDA:1,_RNCNvNtNtNtCscJhqz4rleTI_11atlas_local6client17create_deployment5testss_42test_wait_for_healthy_deployment_no_health0B9_
FNDA:1,_RNCNvNtNtNtCscJhqz4rleTI_11atlas_local6client17create_deployment5testss_44test_create_deployment_start_container_error0B9_
FNDA:1,_RNCNvNtNtNtCscJhqz4rleTI_11atlas_local6client17create_deployment5testss_45test_create_deployment_create_container_error0B9_
FNDA:1,_RNCNvNtNtNtCscJhqz4rleTI_11atlas_local6client17create_deployment5testss_47test_create_deployment_container_already_exists0B9_
FNDA:1,_RNCNvNtNtNtCscJhqz4rleTI_11atlas_local6client17create_deployment5testss_49test_wait_for_healthy_deployment_no_health_status0B9_
FNDA:1,_RNCNvNtNtNtCscJhqz4rleTI_11atlas_local6client17create_deployment5testss_60test_create_deployment_wait_for_healthy_deployment_unhealthy0B9_
FNDA:12,_RNCNvXs8_NtNtNtCscJhqz4rleTI_11atlas_local6client17create_deployment5testsNtB7_10MockDockerNtNtBd_6docker15DockerPullImage10pull_image0Bd_
FNDA:11,_RNCNvXsa_NtNtNtCscJhqz4rleTI_11atlas_local6client17create_deployment5testsNtB7_10MockDockerNtNtBd_6docker21DockerCreateContainer16create_container0Bd_
FNDA:9,_RNCNvXsc_NtNtNtCscJhqz4rleTI_11atlas_local6client17create_deployment5testsNtB7_10MockDockerNtNtBd_6docker20DockerStartContainer15start_container0Bd_
FNDA:11,_RNCNvXse_NtNtNtCscJhqz4rleTI_11atlas_local6client17create_deployment5testsNtB7_10MockDockerNtNtBd_6docker22DockerInspectContainer17inspect_container0Bd_
FNDA:11,_RNvMNtNtNtNtNtCscJhqz4rleTI_11atlas_local6client17create_deployment5tests39___mock_MockDocker_DockerCreateContainer18___create_containerNtB2_5Rfunc8call_mut
FNDA:11,_RNvMs0_NtNtNtNtNtCscJhqz4rleTI_11atlas_local6client17create_deployment5tests39___mock_MockDocker_DockerCreateContainer18___create_containerNtB5_7Matcher7matches
FNDA:11,_RNvMs4_NtNtNtNtNtCscJhqz4rleTI_11atlas_local6client17create_deployment5tests39___mock_MockDocker_DockerCreateContainer18___create_containerNtB5_6Common15verify_sequence
FNDA:11,_RNvMs4_NtNtNtNtNtCscJhqz4rleTI_11atlas_local6client17create_deployment5tests39___mock_MockDocker_DockerCreateContainer18___create_containerNtB5_6Common16satisfy_sequence
FNDA:11,_RNvMs4_NtNtNtNtNtCscJhqz4rleTI_11atlas_local6client17create_deployment5tests39___mock_MockDocker_DockerCreateContainer18___create_containerNtB5_6Common4call
FNDA:11,_RNvMs4_NtNtNtNtNtCscJhqz4rleTI_11atlas_local6client17create_deployment5tests39___mock_MockDocker_DockerCreateContainer18___create_containerNtB5_6Common7is_done
FNDA:11,_RNvMs4_NtNtNtNtNtCscJhqz4rleTI_11atlas_local6client17create_deployment5tests39___mock_MockDocker_DockerCreateContainer18___create_containerNtB5_6Common7matches
FNDA:11,_RNvMs6_NtNtNtNtNtCscJhqz4rleTI_11atlas_local6client17create_deployment5tests39___mock_MockDocker_DockerCreateContainer18___create_containerNtB5_11Expectation4call
FNDA:11,_RNvMs6_NtNtNtNtNtCscJhqz4rleTI_11atlas_local6client17create_deployment5tests39___mock_MockDocker_DockerCreateContainer18___create_containerNtB5_11Expectation7is_done
FNDA:11,_RNvMs6_NtNtNtNtNtCscJhqz4rleTI_11atlas_local6client17create_deployment5tests39___mock_MockDocker_DockerCreateContainer18___create_containerNtB5_11Expectation7matches
FNDA:12,_RNvMs8_NtNtNtNtNtCscJhqz4rleTI_11atlas_local6client17create_deployment5tests39___mock_MockDocker_DockerCreateContainer18___create_containerNtB5_12Expectations3new
FNDA:11,_RNvMs8_NtNtNtNtNtCscJhqz4rleTI_11atlas_local6client17create_deployment5tests39___mock_MockDocker_DockerCreateContainer18___create_containerNtB5_12Expectations6expect
FNDA:11,_RNvMsa_NtNtNtNtNtCscJhqz4rleTI_11atlas_local6client17create_deployment5tests39___mock_MockDocker_DockerCreateContainer18___create_containerNtB5_12Expectations4call
FNDA:11,_RNvXs1_NtNtNtNtNtCscJhqz4rleTI_11atlas_local6client17create_deployment5tests39___mock_MockDocker_DockerCreateContainer18___create_containerNtB5_7MatcherNtNtCsaNl6UpbT7bw_4core7default7Default7default
FNDA:11,_RNvXs2_NtNtNtNtNtCscJhqz4rleTI_11atlas_local6client17create_deployment5tests39___mock_MockDocker_DockerCreateContainer18___create_containerNtB5_7MatcherNtNtCsaNl6UpbT7bw_4core3fmt7Display3fmt
FNDA:11,_RNvXs3_NtNtNtNtNtCscJhqz4rleTI_11atlas_local6client17create_deployment5tests39___mock_MockDocker_DockerCreateContainer18___create_containerNtB5_6CommonNtNtCsaNl6UpbT7bw_4core7default7Default7default
FNDA:11,_RNvXs7_NtNtNtNtNtCscJhqz4rleTI_11atlas_local6client17create_deployment5tests39___mock_MockDocker_DockerCreateContainer18___create_containerNtB5_11ExpectationNtNtCsaNl6UpbT7bw_4core7default7Default7default
FNDA:12,_RNvXs9_NtNtNtNtNtCscJhqz4rleTI_11atlas_local6client17create_deployment5tests39___mock_MockDocker_DockerCreateContainer18___create_containerNtB5_12ExpectationsNtNtCsaNl6UpbT7bw_4core7default7Default7default
FNDA:11,_RNvXs_NtNtNtNtNtCscJhqz4rleTI_11atlas_local6client17create_deployment5tests39___mock_MockDocker_DockerCreateContainer18___create_containerNtB4_5RfuncNtNtCsaNl6UpbT7bw_4core7default7Default7default
FNDA:12,_RNvMs7_NtNtNtCscJhqz4rleTI_11atlas_local6client17create_deployment5testsNtB5_10MockDocker3new
FNDA:12,_RNvMs9_NtNtNtCscJhqz4rleTI_11atlas_local6client17create_deployment5testsNtB5_10MockDocker17expect_pull_image
FNDA:11,_RNvMsb_NtNtNtCscJhqz4rleTI_11atlas_local6client17create_deployment5testsNtB5_10MockDocker23expect_create_container
FNDA:9,_RNvMsd_NtNtNtCscJhqz4rleTI_11atlas_local6client17create_deployment5testsNtB5_10MockDocker22expect_start_container
FNDA:9,_RNvMsf_NtNtNtCscJhqz4rleTI_11atlas_local6client17create_deployment5testsNtB5_10MockDocker24expect_inspect_container
FNDA:5,_RNvNtNtNtCscJhqz4rleTI_11atlas_local6client17create_deployment5tests38create_test_container_inspect_response
FNDA:1,_RNvNtNtNtCscJhqz4rleTI_11atlas_local6client17create_deployment5tests47create_test_container_inspect_response_no_state
FNDA:2,_RNvNtNtNtCscJhqz4rleTI_11atlas_local6client17create_deployment5tests47create_test_container_inspect_response_starting
FNDA:1,_RNvNtNtNtCscJhqz4rleTI_11atlas_local6client17create_deployment5tests48create_test_container_inspect_response_no_health
FNDA:1,_RNvNtNtNtCscJhqz4rleTI_11atlas_local6client17create_deployment5tests48create_test_container_inspect_response_unhealthy
FNDA:1,_RNvNtNtNtCscJhqz4rleTI_11atlas_local6client17create_deployment5tests55create_test_container_inspect_response_no_health_status
FNDA:1,_RNvNtNtNtCscJhqz4rleTI_11atlas_local6client17create_deployment5testss_22test_create_deployment
FNDA:1,_RNvNtNtNtCscJhqz4rleTI_11atlas_local6client17create_deployment5testss_30test_create_deployment_timeout
FNDA:1,_RNvNtNtNtCscJhqz4rleTI_11atlas_local6client17create_deployment5testss_39test_create_deployment_pull_image_error
FNDA:1,_RNvNtNtNtCscJhqz4rleTI_11atlas_local6client17create_deployment5testss_40test_wait_for_healthy_deployment_retries
FNDA:1,_RNvNtNtNtCscJhqz4rleTI_11atlas_local6client17create_deployment5testss_41test_wait_for_healthy_deployment_disabled
FNDA:1,_RNvNtNtNtCscJhqz4rleTI_11atlas_local6client17create_deployment5testss_41test_wait_for_healthy_deployment_no_state
FNDA:1,_RNvNtNtNtCscJhqz4rleTI_11atlas_local6client17create_deployment5testss_42test_wait_for_healthy_deployment_no_health
FNDA:1,_RNvNtNtNtCscJhqz4rleTI_11atlas_local6client17create_deployment5testss_44test_create_deployment_start_container_error
FNDA:1,_RNvNtNtNtCscJhqz4rleTI_11atlas_local6client17create_deployment5testss_45test_create_deployment_create_container_error
FNDA:1,_RNvNtNtNtCscJhqz4rleTI_11atlas_local6client17create_deployment5testss_47test_create_deployment_container_already_exists
FNDA:1,_RNvNtNtNtCscJhqz4rleTI_11atlas_local6client17create_deployment5testss_49test_wait_for_healthy_deployment_no_health_status
FNDA:1,_RNvNtNtNtCscJhqz4rleTI_11atlas_local6client17create_deployment5testss_60test_create_deployment_wait_for_healthy_deployment_unhealthy
FNDA:12,_RNvXNtNtNtCscJhqz4rleTI_11atlas_local6client17create_deployment5testsNtB2_10MockDockerNtNtCsaNl6UpbT7bw_4core7default7Default7default
FNDA:12,_RNvXs1_NtNtNtCscJhqz4rleTI_11atlas_local6client17create_deployment5testsNtB5_32MockDocker_DockerCreateContainerNtNtCsaNl6UpbT7bw_4core7default7Default7default
FNDA:12,_RNvXs3_NtNtNtCscJhqz4rleTI_11atlas_local6client17create_deployment5testsNtB5_31MockDocker_DockerStartContainerNtNtCsaNl6UpbT7bw_4core7default7Default7default
FNDA:12,_RNvXs5_NtNtNtCscJhqz4rleTI_11atlas_local6client17create_deployment5testsNtB5_33MockDocker_DockerInspectContainerNtNtCsaNl6UpbT7bw_4core7default7Default7default
FNDA:12,_RNvXs_NtNtNtCscJhqz4rleTI_11atlas_local6client17create_deployment5testsNtB4_26MockDocker_DockerPullImageNtNtCsaNl6UpbT7bw_4core7default7Default7default
FNDA:12,_RNvMNtNtNtNtNtCscJhqz4rleTI_11atlas_local6client17create_deployment5tests33___mock_MockDocker_DockerPullImage12___pull_imageNtB2_5Rfunc8call_mut
FNDA:12,_RNvMs0_NtNtNtNtNtCscJhqz4rleTI_11atlas_local6client17create_deployment5tests33___mock_MockDocker_DockerPullImage12___pull_imageNtB5_7Matcher7matches
FNDA:12,_RNvMs4_NtNtNtNtNtCscJhqz4rleTI_11atlas_local6client17create_deployment5tests33___mock_MockDocker_DockerPullImage12___pull_imageNtB5_6Common15verify_sequence
FNDA:12,_RNvMs4_NtNtNtNtNtCscJhqz4rleTI_11atlas_local6client17create_deployment5tests33___mock_MockDocker_DockerPullImage12___pull_imageNtB5_6Common16satisfy_sequence
FNDA:12,_RNvMs4_NtNtNtNtNtCscJhqz4rleTI_11atlas_local6client17create_deployment5tests33___mock_MockDocker_DockerPullImage12___pull_imageNtB5_6Common4call
FNDA:12,_RNvMs4_NtNtNtNtNtCscJhqz4rleTI_11atlas_local6client17create_deployment5tests33___mock_MockDocker_DockerPullImage12___pull_imageNtB5_6Common7is_done
FNDA:12,_RNvMs4_NtNtNtNtNtCscJhqz4rleTI_11atlas_local6client17create_deployment5tests33___mock_MockDocker_DockerPullImage12___pull_imageNtB5_6Common7matches
FNDA:12,_RNvMs6_NtNtNtNtNtCscJhqz4rleTI_11atlas_local6client17create_deployment5tests33___mock_MockDocker_DockerPullImage12___pull_imageNtB5_11Expectation4call
FNDA:12,_RNvMs6_NtNtNtNtNtCscJhqz4rleTI_11atlas_local6client17create_deployment5tests33___mock_MockDocker_DockerPullImage12___pull_imageNtB5_11Expectation7is_done
FNDA:12,_RNvMs6_NtNtNtNtNtCscJhqz4rleTI_11atlas_local6client17create_deployment5tests33___mock_MockDocker_DockerPullImage12___pull_imageNtB5_11Expectation7matches
FNDA:12,_RNvMs8_NtNtNtNtNtCscJhqz4rleTI_11atlas_local6client17create_deployment5tests33___mock_MockDocker_DockerPullImage12___pull_imageNtB5_12Expectations3new
FNDA:12,_RNvMs8_NtNtNtNtNtCscJhqz4rleTI_11atlas_local6client17create_deployment5tests33___mock_MockDocker_DockerPullImage12___pull_imageNtB5_12Expectations6expect
FNDA:12,_RNvMsa_NtNtNtNtNtCscJhqz4rleTI_11atlas_local6client17create_deployment5tests33___mock_MockDocker_DockerPullImage12___pull_imageNtB5_12Expectations4call
FNDA:12,_RNvXs1_NtNtNtNtNtCscJhqz4rleTI_11atlas_local6client17create_deployment5tests33___mock_MockDocker_DockerPullImage12___pull_imageNtB5_7MatcherNtNtCsaNl6UpbT7bw_4core7default7Default7default
FNDA:12,_RNvXs2_NtNtNtNtNtCscJhqz4rleTI_11atlas_local6client17create_deployment5tests33___mock_MockDocker_DockerPullImage12___pull_imageNtB5_7MatcherNtNtCsaNl6UpbT7bw_4core3fmt7Display3fmt
FNDA:12,_RNvXs3_NtNtNtNtNtCscJhqz4rleTI_11atlas_local6client17create_deployment5tests33___mock_MockDocker_DockerPullImage12___pull_imageNtB5_6CommonNtNtCsaNl6UpbT7bw_4core7default7Default7default
FNDA:12,_RNvXs7_NtNtNtNtNtCscJhqz4rleTI_11atlas_local6client17create_deployment5tests33___mock_MockDocker_DockerPullImage12___pull_imageNtB5_11ExpectationNtNtCsaNl6UpbT7bw_4core7default7Default7default
FNDA:12,_RNvXs9_NtNtNtNtNtCscJhqz4rleTI_11atlas_local6client17create_deployment5tests33___mock_MockDocker_DockerPullImage12___pull_imageNtB5_12ExpectationsNtNtCsaNl6UpbT7bw_4core7default7Default7default
FNDA:12,_RNvXs_NtNtNtNtNtCscJhqz4rleTI_11atlas_local6client17create_deployment5tests33___mock_MockDocker_DockerPullImage12___pull_imageNtB4_5RfuncNtNtCsaNl6UpbT7bw_4core7default7Default7default
FNDA:11,_RNvMNtNtNtNtNtCscJhqz4rleTI_11atlas_local6client17create_deployment5tests40___mock_MockDocker_DockerInspectContainer19___inspect_containerNtB2_5Rfunc8call_mut
FNDA:13,_RNvMs0_NtNtNtNtNtCscJhqz4rleTI_11atlas_local6client17create_deployment5tests40___mock_MockDocker_DockerInspectContainer19___inspect_containerNtB5_7Matcher7matches
FNDA:11,_RNvMs4_NtNtNtNtNtCscJhqz4rleTI_11atlas_local6client17create_deployment5tests40___mock_MockDocker_DockerInspectContainer19___inspect_containerNtB5_6Common15verify_sequence
FNDA:9,_RNvMs4_NtNtNtNtNtCscJhqz4rleTI_11atlas_local6client17create_deployment5tests40___mock_MockDocker_DockerInspectContainer19___inspect_containerNtB5_6Common16satisfy_sequence
FNDA:11,_RNvMs4_NtNtNtNtNtCscJhqz4rleTI_11atlas_local6client17create_deployment5tests40___mock_MockDocker_DockerInspectContainer19___inspect_containerNtB5_6Common4call
FNDA:13,_RNvMs4_NtNtNtNtNtCscJhqz4rleTI_11atlas_local6client17create_deployment5tests40___mock_MockDocker_DockerInspectContainer19___inspect_containerNtB5_6Common7is_done
FNDA:13,_RNvMs4_NtNtNtNtNtCscJhqz4rleTI_11atlas_local6client17create_deployment5tests40___mock_MockDocker_DockerInspectContainer19___inspect_containerNtB5_6Common7matches
FNDA:11,_RNvMs6_NtNtNtNtNtCscJhqz4rleTI_11atlas_local6client17create_deployment5tests40___mock_MockDocker_DockerInspectContainer19___inspect_containerNtB5_11Expectation4call
FNDA:13,_RNvMs6_NtNtNtNtNtCscJhqz4rleTI_11atlas_local6client17create_deployment5tests40___mock_MockDocker_DockerInspectContainer19___inspect_containerNtB5_11Expectation7is_done
FNDA:13,_RNvMs6_NtNtNtNtNtCscJhqz4rleTI_11atlas_local6client17create_deployment5tests40___mock_MockDocker_DockerInspectContainer19___inspect_containerNtB5_11Expectation7matches
FNDA:12,_RNvMs8_NtNtNtNtNtCscJhqz4rleTI_11atlas_local6client17create_deployment5tests40___mock_MockDocker_DockerInspectContainer19___inspect_containerNtB5_12Expectations3new
FNDA:9,_RNvMs8_NtNtNtNtNtCscJhqz4rleTI_11atlas_local6client17create_deployment5tests40___mock_MockDocker_DockerInspectContainer19___inspect_containerNtB5_12Expectations6expect
FNDA:11,_RNvMsa_NtNtNtNtNtCscJhqz4rleTI_11atlas_local6client17create_deployment5tests40___mock_MockDocker_DockerInspectContainer19___inspect_containerNtB5_12Expectations4call
FNDA:9,_RNvXs1_NtNtNtNtNtCscJhqz4rleTI_11atlas_local6client17create_deployment5tests40___mock_MockDocker_DockerInspectContainer19___inspect_containerNtB5_7MatcherNtNtCsaNl6UpbT7bw_4core7default7Default7default
FNDA:9,_RNvXs2_NtNtNtNtNtCscJhqz4rleTI_11atlas_local6client17create_deployment5tests40___mock_MockDocker_DockerInspectContainer19___inspect_containerNtB5_7MatcherNtNtCsaNl6UpbT7bw_4core3fmt7Display3fmt
FNDA:9,_RNvXs3_NtNtNtNtNtCscJhqz4rleTI_11atlas_local6client17create_deployment5tests40___mock_MockDocker_DockerInspectContainer19___inspect_containerNtB5_6CommonNtNtCsaNl6UpbT7bw_4core7default7Default7default
FNDA:9,_RNvXs7_NtNtNtNtNtCscJhqz4rleTI_11atlas_local6client17create_deployment5tests40___mock_MockDocker_DockerInspectContainer19___inspect_containerNtB5_11ExpectationNtNtCsaNl6UpbT7bw_4core7default7Default7default
FNDA:12,_RNvXs9_NtNtNtNtNtCscJhqz4rleTI_11atlas_local6client17create_deployment5tests40___mock_MockDocker_DockerInspectContainer19___inspect_containerNtB5_12ExpectationsNtNtCsaNl6UpbT7bw_4core7default7Default7default
FNDA:9,_RNvXs_NtNtNtNtNtCscJhqz4rleTI_11atlas_local6client17create_deployment5tests40___mock_MockDocker_DockerInspectContainer19___inspect_containerNtB4_5RfuncNtNtCsaNl6UpbT7bw_4core7default7Default7default
FNDA:11,_RINvMs4_NtNtNtNtNtCscJhqz4rleTI_11atlas_local6client17create_deployment5tests39___mock_MockDocker_DockerCreateContainer18___create_containerNtB6_6Common5timesjEBg_
FNDA:11,_RINvMs6_NtNtNtNtNtCscJhqz4rleTI_11atlas_local6client17create_deployment5tests39___mock_MockDocker_DockerCreateContainer18___create_containerNtB6_11Expectation5timesjEBg_
FNDA:1,_RINvMs6_NtNtNtNtNtCscJhqz4rleTI_11atlas_local6client17create_deployment5tests39___mock_MockDocker_DockerCreateContainer18___create_containerNtB6_11Expectation9returningNCNCNvBa_s_22test_create_deployment0s_0EBg_
FNDA:1,_RINvMs6_NtNtNtNtNtCscJhqz4rleTI_11atlas_local6client17create_deployment5tests39___mock_MockDocker_DockerCreateContainer18___create_containerNtB6_11Expectation9returningNCNCNvBa_s_30test_create_deployment_timeout0s_0EBg_
FNDA:1,_RINvMs6_NtNtNtNtNtCscJhqz4rleTI_11atlas_local6client17create_deployment5tests39___mock_MockDocker_DockerCreateContainer18___create_containerNtB6_11Expectation9returningNCNCNvBa_s_40test_wait_for_healthy_deployment_retries0s_0EBg_
FNDA:1,_RINvMs6_NtNtNtNtNtCscJhqz4rleTI_11atlas_local6client17create_deployment5tests39___mock_MockDocker_DockerCreateContainer18___create_containerNtB6_11Expectation9returningNCNCNvBa_s_41test_wait_for_healthy_deployment_disabled0s_0EBg_
FNDA:1,_RINvMs6_NtNtNtNtNtCscJhqz4rleTI_11atlas_local6client17create_deployment5tests39___mock_MockDocker_DockerCreateContainer18___create_containerNtB6_11Expectation9returningNCNCNvBa_s_41test_wait_for_healthy_deployment_no_state0s_0EBg_
FNDA:1,_RINvMs6_NtNtNtNtNtCscJhqz4rleTI_11atlas_local6client17create_deployment5tests39___mock_MockDocker_DockerCreateContainer18___create_containerNtB6_11Expectation9returningNCNCNvBa_s_42test_wait_for_healthy_deployment_no_health0s_0EBg_
FNDA:1,_RINvMs6_NtNtNtNtNtCscJhqz4rleTI_11atlas_local6client17create_deployment5tests39___mock_MockDocker_DockerCreateContainer18___create_containerNtB6_11Expectation9returningNCNCNvBa_s_44test_create_deployment_start_container_error0s_0EBg_
FNDA:1,_RINvMs6_NtNtNtNtNtCscJhqz4rleTI_11atlas_local6client17create_deployment5tests39___mock_MockDocker_DockerCreateContainer18___create_containerNtB6_11Expectation9returningNCNCNvBa_s_45test_create_deployment_create_container_error0s_0EBg_
FNDA:1,_RINvMs6_NtNtNtNtNtCscJhqz4rleTI_11atlas_local6client17create_deployment5tests39___mock_MockDocker_DockerCreateContainer18___create_containerNtB6_11Expectation9returningNCNCNvBa_s_47test_create_deployment_container_already_exists0s_0EBg_
FNDA:1,_RINvMs6_NtNtNtNtNtCscJhqz4rleTI_11atlas_local6client17create_deployment5tests39___mock_MockDocker_DockerCreateContainer18___create_containerNtB6_11Expectation9returningNCNCNvBa_s_49test_wait_for_healthy_deployment_no_health_status0s_0EBg_
FNDA:1,_RINvMs6_NtNtNtNtNtCscJhqz4rleTI_11atlas_local6client17create_deployment5tests39___mock_MockDocker_DockerCreateContainer18___create_containerNtB6_11Expectation9returningNCNCNvBa_s_60test_create_deployment_wait_for_healthy_deployment_unhealthy0s_0EBg_
FNDA:0,_RNCNvMs0_NtNtNtNtNtCscJhqz4rleTI_11atlas_local6client17create_deployment5tests39___mock_MockDocker_DockerCreateContainer18___create_containerNtB7_7Matcher7matches0Bh_
FNDA:11,_RNCNvMsa_NtNtNtNtNtCscJhqz4rleTI_11atlas_local6client17create_deployment5tests39___mock_MockDocker_DockerCreateContainer18___create_containerNtB7_12Expectations4call0Bh_
FNDA:11,_RNCNvMsa_NtNtNtNtNtCscJhqz4rleTI_11atlas_local6client17create_deployment5tests39___mock_MockDocker_DockerCreateContainer18___create_containerNtB7_12Expectations4calls_0Bh_
FNDA:9,_RNvMNtNtNtNtNtCscJhqz4rleTI_11atlas_local6client17create_deployment5tests38___mock_MockDocker_DockerStartContainer17___start_containerNtB2_5Rfunc8call_mut
FNDA:9,_RNvMs0_NtNtNtNtNtCscJhqz4rleTI_11atlas_local6client17create_deployment5tests38___mock_MockDocker_DockerStartContainer17___start_containerNtB5_7Matcher7matches
FNDA:9,_RNvMs4_NtNtNtNtNtCscJhqz4rleTI_11atlas_local6client17create_deployment5tests38___mock_MockDocker_DockerStartContainer17___start_containerNtB5_6Common15verify_sequence
FNDA:9,_RNvMs4_NtNtNtNtNtCscJhqz4rleTI_11atlas_local6client17create_deployment5tests38___mock_MockDocker_DockerStartContainer17___start_containerNtB5_6Common16satisfy_sequence
FNDA:9,_RNvMs4_NtNtNtNtNtCscJhqz4rleTI_11atlas_local6client17create_deployment5tests38___mock_MockDocker_DockerStartContainer17___start_containerNtB5_6Common4call
FNDA:9,_RNvMs4_NtNtNtNtNtCscJhqz4rleTI_11atlas_local6client17create_deployment5tests38___mock_MockDocker_DockerStartContainer17___start_containerNtB5_6Common7is_done
FNDA:9,_RNvMs4_NtNtNtNtNtCscJhqz4rleTI_11atlas_local6client17create_deployment5tests38___mock_MockDocker_DockerStartContainer17___start_containerNtB5_6Common7matches
FNDA:9,_RNvMs6_NtNtNtNtNtCscJhqz4rleTI_11atlas_local6client17create_deployment5tests38___mock_MockDocker_DockerStartContainer17___start_containerNtB5_11Expectation4call
FNDA:9,_RNvMs6_NtNtNtNtNtCscJhqz4rleTI_11atlas_local6client17create_deployment5tests38___mock_MockDocker_DockerStartContainer17___start_containerNtB5_11Expectation7is_done
FNDA:9,_RNvMs6_NtNtNtNtNtCscJhqz4rleTI_11atlas_local6client17create_deployment5tests38___mock_MockDocker_DockerStartContainer17___start_containerNtB5_11Expectation7matches
FNDA:12,_RNvMs8_NtNtNtNtNtCscJhqz4rleTI_11atlas_local6client17create_deployment5tests38___mock_MockDocker_DockerStartContainer17___start_containerNtB5_12Expectations3new
FNDA:9,_RNvMs8_NtNtNtNtNtCscJhqz4rleTI_11atlas_local6client17create_deployment5tests38___mock_MockDocker_DockerStartContainer17___start_containerNtB5_12Expectations6expect
FNDA:9,_RNvMsa_NtNtNtNtNtCscJhqz4rleTI_11atlas_local6client17create_deployment5tests38___mock_MockDocker_DockerStartContainer17___start_containerNtB5_12Expectations4call
FNDA:9,_RNvXs1_NtNtNtNtNtCscJhqz4rleTI_11atlas_local6client17create_deployment5tests38___mock_MockDocker_DockerStartContainer17___start_containerNtB5_7MatcherNtNtCsaNl6UpbT7bw_4core7default7Default7default
FNDA:9,_RNvXs2_NtNtNtNtNtCscJhqz4rleTI_11atlas_local6client17create_deployment5tests38___mock_MockDocker_DockerStartContainer17___start_containerNtB5_7MatcherNtNtCsaNl6UpbT7bw_4core3fmt7Display3fmt
FNDA:9,_RNvXs3_NtNtNtNtNtCscJhqz4rleTI_11atlas_local6client17create_deployment5tests38___mock_MockDocker_DockerStartContainer17___start_containerNtB5_6CommonNtNtCsaNl6UpbT7bw_4core7default7Default7default
FNDA:9,_RNvXs7_NtNtNtNtNtCscJhqz4rleTI_11atlas_local6client17create_deployment5tests38___mock_MockDocker_DockerStartContainer17___start_containerNtB5_11ExpectationNtNtCsaNl6UpbT7bw_4core7default7Default7default
FNDA:12,_RNvXs9_NtNtNtNtNtCscJhqz4rleTI_11atlas_local6client17create_deployment5tests38___mock_MockDocker_DockerStartContainer17___start_containerNtB5_12ExpectationsNtNtCsaNl6UpbT7bw_4core7default7Default7default
FNDA:9,_RNvXs_NtNtNtNtNtCscJhqz4rleTI_11atlas_local6client17create_deployment5tests38___mock_MockDocker_DockerStartContainer17___start_containerNtB4_5RfuncNtNtCsaNl6UpbT7bw_4core7default7Default7default
FNDA:8,_RINvMs4_NtNtNtNtNtCscJhqz4rleTI_11atlas_local6client17create_deployment5tests33___mock_MockDocker_DockerPullImage12___pull_imageNtB6_6Common4withINtNtCsaS4gknD0Sqc_10predicates3ord11EqPredicateReEB2j_EBg_
FNDA:12,_RINvMs4_NtNtNtNtNtCscJhqz4rleTI_11atlas_local6client17create_deployment5tests33___mock_MockDocker_DockerPullImage12___pull_imageNtB6_6Common5timesjEBg_
FNDA:8,_RINvMs6_NtNtNtNtNtCscJhqz4rleTI_11atlas_local6client17create_deployment5tests33___mock_MockDocker_DockerPullImage12___pull_imageNtB6_11Expectation4withINtNtCsaS4gknD0Sqc_10predicates3ord11EqPredicateReEB2p_EBg_
FNDA:12,_RINvMs6_NtNtNtNtNtCscJhqz4rleTI_11atlas_local6client17create_deployment5tests33___mock_MockDocker_DockerPullImage12___pull_imageNtB6_11Expectation5timesjEBg_
FNDA:1,_RINvMs6_NtNtNtNtNtCscJhqz4rleTI_11atlas_local6client17create_deployment5tests33___mock_MockDocker_DockerPullImage12___pull_imageNtB6_11Expectation9returningNCNCNvBa_s_22test_create_deployment00EBg_
FNDA:1,_RINvMs6_NtNtNtNtNtCscJhqz4rleTI_11atlas_local6client17create_deployment5tests33___mock_MockDocker_DockerPullImage12___pull_imageNtB6_11Expectation9returningNCNCNvBa_s_30test_create_deployment_timeout00EBg_
FNDA:1,_RINvMs6_NtNtNtNtNtCscJhqz4rleTI_11atlas_local6client17create_deployment5tests33___mock_MockDocker_DockerPullImage12___pull_imageNtB6_11Expectation9returningNCNCNvBa_s_39test_create_deployment_pull_image_error00EBg_
FNDA:1,_RINvMs6_NtNtNtNtNtCscJhqz4rleTI_11atlas_local6client17create_deployment5tests33___mock_MockDocker_DockerPullImage12___pull_imageNtB6_11Expectation9returningNCNCNvBa_s_40test_wait_for_healthy_deployment_retries00EBg_
FNDA:1,_RINvMs6_NtNtNtNtNtCscJhqz4rleTI_11atlas_local6client17create_deployment5tests33___mock_MockDocker_DockerPullImage12___pull_imageNtB6_11Expectation9returningNCNCNvBa_s_41test_wait_for_healthy_deployment_disabled00EBg_
FNDA:1,_RINvMs6_NtNtNtNtNtCscJhqz4rleTI_11atlas_local6client17create_deployment5tests33___mock_MockDocker_DockerPullImage12___pull_imageNtB6_11Expectation9returningNCNCNvBa_s_41test_wait_for_healthy_deployment_no_state00EBg_
FNDA:1,_RINvMs6_NtNtNtNtNtCscJhqz4rleTI_11atlas_local6client17create_deployment5tests33___mock_MockDocker_DockerPullImage12___pull_imageNtB6_11Expectation9returningNCNCNvBa_s_42test_wait_for_healthy_deployment_no_health00EBg_
FNDA:1,_RINvMs6_NtNtNtNtNtCscJhqz4rleTI_11atlas_local6client17create_deployment5tests33___mock_MockDocker_DockerPullImage12___pull_imageNtB6_11Expectation9returningNCNCNvBa_s_44test_create_deployment_start_container_error00EBg_
FNDA:1,_RINvMs6_NtNtNtNtNtCscJhqz4rleTI_11atlas_local6client17create_deployment5tests33___mock_MockDocker_DockerPullImage12___pull_imageNtB6_11Expectation9returningNCNCNvBa_s_45test_create_deployment_create_container_error00EBg_
FNDA:1,_RINvMs6_NtNtNtNtNtCscJhqz4rleTI_11atlas_local6client17create_deployment5tests33___mock_MockDocker_DockerPullImage12___pull_imageNtB6_11Expectation9returningNCNCNvBa_s_47test_create_deployment_container_already_exists00EBg_
FNDA:1,_RINvMs6_NtNtNtNtNtCscJhqz4rleTI_11atlas_local6client17create_deployment5tests33___mock_MockDocker_DockerPullImage12___pull_imageNtB6_11Expectation9returningNCNCNvBa_s_49test_wait_for_healthy_deployment_no_health_status00EBg_
FNDA:1,_RINvMs6_NtNtNtNtNtCscJhqz4rleTI_11atlas_local6client17create_deployment5tests33___mock_MockDocker_DockerPullImage12___pull_imageNtB6_11Expectation9returningNCNCNvBa_s_60test_create_deployment_wait_for_healthy_deployment_unhealthy00EBg_
FNDA:16,_RNCNvMs0_NtNtNtNtNtCscJhqz4rleTI_11atlas_local6client17create_deployment5tests33___mock_MockDocker_DockerPullImage12___pull_imageNtB7_7Matcher7matches0Bh_
FNDA:12,_RNCNvMsa_NtNtNtNtNtCscJhqz4rleTI_11atlas_local6client17create_deployment5tests33___mock_MockDocker_DockerPullImage12___pull_imageNtB7_12Expectations4call0Bh_
FNDA:12,_RNCNvMsa_NtNtNtNtNtCscJhqz4rleTI_11atlas_local6client17create_deployment5tests33___mock_MockDocker_DockerPullImage12___pull_imageNtB7_12Expectations4calls_0Bh_
FNDA:12,_RNvMNtNtCscJhqz4rleTI_11atlas_local6client17create_deploymentINtB4_6ClientNtNtB2_5tests10MockDockerE17create_deploymentB6_
FNDA:7,_RNvMs_NtNtCscJhqz4rleTI_11atlas_local6client17create_deploymentINtB6_6ClientNtNtB4_5tests10MockDockerE27wait_for_healthy_deploymentB8_
FNDA:12,_RNvXs5_NtNtNtNtNtCscJhqz4rleTI_11atlas_local6client17create_deployment5tests33___mock_MockDocker_DockerPullImage12___pull_imageNtB5_6CommonNtNtNtCsaNl6UpbT7bw_4core3ops4drop4Drop4drop
FNDA:9,_RNvXs5_NtNtNtNtNtCscJhqz4rleTI_11atlas_local6client17create_deployment5tests38___mock_MockDocker_DockerStartContainer17___start_containerNtB5_6CommonNtNtNtCsaNl6UpbT7bw_4core3ops4drop4Drop4drop
FNDA:11,_RNvXs5_NtNtNtNtNtCscJhqz4rleTI_11atlas_local6client17create_deployment5tests39___mock_MockDocker_DockerCreateContainer18___create_containerNtB5_6CommonNtNtNtCsaNl6UpbT7bw_4core3ops4drop4Drop4drop
FNDA:9,_RNvXs5_NtNtNtNtNtCscJhqz4rleTI_11atlas_local6client17create_deployment5tests40___mock_MockDocker_DockerInspectContainer19___inspect_containerNtB5_6CommonNtNtNtCsaNl6UpbT7bw_4core3ops4drop4Drop4drop
FNDA:0,_RINvMs4_NtNtNtNtNtCscJhqz4rleTI_11atlas_local6client17create_deployment5tests33___mock_MockDocker_DockerPullImage12___pull_imageNtB6_6Common5withfpEBg_
FNDA:0,_RINvMs4_NtNtNtNtNtCscJhqz4rleTI_11atlas_local6client17create_deployment5tests33___mock_MockDocker_DockerPullImage12___pull_imageNtB6_6Common8withf_stpEBg_
FNDA:0,_RINvMs4_NtNtNtNtNtCscJhqz4rleTI_11atlas_local6client17create_deployment5tests38___mock_MockDocker_DockerStartContainer17___start_containerNtB6_6Common5withfpEBg_
FNDA:0,_RINvMs4_NtNtNtNtNtCscJhqz4rleTI_11atlas_local6client17create_deployment5tests38___mock_MockDocker_DockerStartContainer17___start_containerNtB6_6Common8withf_stpEBg_
FNDA:0,_RINvMs4_NtNtNtNtNtCscJhqz4rleTI_11atlas_local6client17create_deployment5tests39___mock_MockDocker_DockerCreateContainer18___create_containerNtB6_6Common4withppEBg_
FNDA:0,_RINvMs4_NtNtNtNtNtCscJhqz4rleTI_11atlas_local6client17create_deployment5tests39___mock_MockDocker_DockerCreateContainer18___create_containerNtB6_6Common5withfpEBg_
FNDA:0,_RINvMs4_NtNtNtNtNtCscJhqz4rleTI_11atlas_local6client17create_deployment5tests39___mock_MockDocker_DockerCreateContainer18___create_containerNtB6_6Common8withf_stpEBg_
FNDA:0,_RINvMs4_NtNtNtNtNtCscJhqz4rleTI_11atlas_local6client17create_deployment5tests40___mock_MockDocker_DockerInspectContainer19___inspect_containerNtB6_6Common5withfpEBg_
FNDA:0,_RINvMs4_NtNtNtNtNtCscJhqz4rleTI_11atlas_local6client17create_deployment5tests40___mock_MockDocker_DockerInspectContainer19___inspect_containerNtB6_6Common8withf_stpEBg_
FNDA:0,_RINvMs6_NtNtNtNtNtCscJhqz4rleTI_11atlas_local6client17create_deployment5tests33___mock_MockDocker_DockerPullImage12___pull_imageNtB6_11Expectation11return_oncepEBg_
FNDA:0,_RINvMs6_NtNtNtNtNtCscJhqz4rleTI_11atlas_local6client17create_deployment5tests33___mock_MockDocker_DockerPullImage12___pull_imageNtB6_11Expectation12return_constpEBg_
FNDA:0,_RINvMs6_NtNtNtNtNtCscJhqz4rleTI_11atlas_local6client17create_deployment5tests33___mock_MockDocker_DockerPullImage12___pull_imageNtB6_11Expectation12returning_stpEBg_
FNDA:0,_RINvMs6_NtNtNtNtNtCscJhqz4rleTI_11atlas_local6client17create_deployment5tests33___mock_MockDocker_DockerPullImage12___pull_imageNtB6_11Expectation14return_once_stpEBg_
FNDA:0,_RINvMs6_NtNtNtNtNtCscJhqz4rleTI_11atlas_local6client17create_deployment5tests33___mock_MockDocker_DockerPullImage12___pull_imageNtB6_11Expectation15return_const_stpEBg_
FNDA:0,_RINvMs6_NtNtNtNtNtCscJhqz4rleTI_11atlas_local6client17create_deployment5tests33___mock_MockDocker_DockerPullImage12___pull_imageNtB6_11Expectation5withfpEBg_
FNDA:0,_RINvMs6_NtNtNtNtNtCscJhqz4rleTI_11atlas_local6client17create_deployment5tests33___mock_MockDocker_DockerPullImage12___pull_imageNtB6_11Expectation8withf_stpEBg_
FNDA:0,_RINvMs6_NtNtNtNtNtCscJhqz4rleTI_11atlas_local6client17create_deployment5tests38___mock_MockDocker_DockerStartContainer17___start_containerNtB6_11Expectation11return_oncepEBg_
FNDA:0,_RINvMs6_NtNtNtNtNtCscJhqz4rleTI_11atlas_local6client17create_deployment5tests38___mock_MockDocker_DockerStartContainer17___start_containerNtB6_11Expectation12return_constpEBg_
FNDA:0,_RINvMs6_NtNtNtNtNtCscJhqz4rleTI_11atlas_local6client17create_deployment5tests38___mock_MockDocker_DockerStartContainer17___start_containerNtB6_11Expectation12returning_stpEBg_
FNDA:0,_RINvMs6_NtNtNtNtNtCscJhqz4rleTI_11atlas_local6client17create_deployment5tests38___mock_MockDocker_DockerStartContainer17___start_containerNtB6_11Expectation14return_once_stpEBg_
FNDA:0,_RINvMs6_NtNtNtNtNtCscJhqz4rleTI_11atlas_local6client17create_deployment5tests38___mock_MockDocker_DockerStartContainer17___start_containerNtB6_11Expectation15return_const_stpEBg_
FNDA:0,_RINvMs6_NtNtNtNtNtCscJhqz4rleTI_11atlas_local6client17create_deployment5tests38___mock_MockDocker_DockerStartContainer17___start_containerNtB6_11Expectation5withfpEBg_
FNDA:0,_RINvMs6_NtNtNtNtNtCscJhqz4rleTI_11atlas_local6client17create_deployment5tests38___mock_MockDocker_DockerStartContainer17___start_containerNtB6_11Expectation8withf_stpEBg_
FNDA:0,_RINvMs6_NtNtNtNtNtCscJhqz4rleTI_11atlas_local6client17create_deployment5tests39___mock_MockDocker_DockerCreateContainer18___create_containerNtB6_11Expectation11return_oncepEBg_
FNDA:0,_RINvMs6_NtNtNtNtNtCscJhqz4rleTI_11atlas_local6client17create_deployment5tests39___mock_MockDocker_DockerCreateContainer18___create_containerNtB6_11Expectation12return_constpEBg_
FNDA:0,_RINvMs6_NtNtNtNtNtCscJhqz4rleTI_11atlas_local6client17create_deployment5tests39___mock_MockDocker_DockerCreateContainer18___create_containerNtB6_11Expectation12returning_stpEBg_
FNDA:0,_RINvMs6_NtNtNtNtNtCscJhqz4rleTI_11atlas_local6client17create_deployment5tests39___mock_MockDocker_DockerCreateContainer18___create_containerNtB6_11Expectation14return_once_stpEBg_
FNDA:0,_RINvMs6_NtNtNtNtNtCscJhqz4rleTI_11atlas_local6client17create_deployment5tests39___mock_MockDocker_DockerCreateContainer18___create_containerNtB6_11Expectation15return_const_stpEBg_
FNDA:0,_RINvMs6_NtNtNtNtNtCscJhqz4rleTI_11atlas_local6client17create_deployment5tests39___mock_MockDocker_DockerCreateContainer18___create_containerNtB6_11Expectation4withppEBg_
FNDA:0,_RINvMs6_NtNtNtNtNtCscJhqz4rleTI_11atlas_local6client17create_deployment5tests39___mock_MockDocker_DockerCreateContainer18___create_containerNtB6_11Expectation5withfpEBg_
FNDA:0,_RINvMs6_NtNtNtNtNtCscJhqz4rleTI_11atlas_local6client17create_deployment5tests39___mock_MockDocker_DockerCreateContainer18___create_containerNtB6_11Expectation8withf_stpEBg_
FNDA:0,_RINvMs6_NtNtNtNtNtCscJhqz4rleTI_11atlas_local6client17create_deployment5tests40___mock_MockDocker_DockerInspectContainer19___inspect_containerNtB6_11Expectation11return_oncepEBg_
FNDA:0,_RINvMs6_NtNtNtNtNtCscJhqz4rleTI_11atlas_local6client17create_deployment5tests40___mock_MockDocker_DockerInspectContainer19___inspect_containerNtB6_11Expectation12return_constpEBg_
FNDA:0,_RINvMs6_NtNtNtNtNtCscJhqz4rleTI_11atlas_local6client17create_deployment5tests40___mock_MockDocker_DockerInspectContainer19___inspect_containerNtB6_11Expectation12returning_stpEBg_
FNDA:0,_RINvMs6_NtNtNtNtNtCscJhqz4rleTI_11atlas_local6client17create_deployment5tests40___mock_MockDocker_DockerInspectContainer19___inspect_containerNtB6_11Expectation14return_once_stpEBg_
FNDA:0,_RINvMs6_NtNtNtNtNtCscJhqz4rleTI_11atlas_local6client17create_deployment5tests40___mock_MockDocker_DockerInspectContainer19___inspect_containerNtB6_11Expectation15return_const_stpEBg_
FNDA:0,_RINvMs6_NtNtNtNtNtCscJhqz4rleTI_11atlas_local6client17create_deployment5tests40___mock_MockDocker_DockerInspectContainer19___inspect_containerNtB6_11Expectation5withfpEBg_
FNDA:0,_RINvMs6_NtNtNtNtNtCscJhqz4rleTI_11atlas_local6client17create_deployment5tests40___mock_MockDocker_DockerInspectContainer19___inspect_containerNtB6_11Expectation8withf_stpEBg_
FNDA:0,_RNCINvMs6_NtNtNtNtNtCscJhqz4rleTI_11atlas_local6client17create_deployment5tests33___mock_MockDocker_DockerPullImage12___pull_imageNtB8_11Expectation12return_constpE0Bi_
FNDA:0,_RNCINvMs6_NtNtNtNtNtCscJhqz4rleTI_11atlas_local6client17create_deployment5tests33___mock_MockDocker_DockerPullImage12___pull_imageNtB8_11Expectation15return_const_stpE0Bi_
FNDA:0,_RNCINvMs6_NtNtNtNtNtCscJhqz4rleTI_11atlas_local6client17create_deployment5tests38___mock_MockDocker_DockerStartContainer17___start_containerNtB8_11Expectation12return_constpE0Bi_
FNDA:0,_RNCINvMs6_NtNtNtNtNtCscJhqz4rleTI_11atlas_local6client17create_deployment5tests38___mock_MockDocker_DockerStartContainer17___start_containerNtB8_11Expectation15return_const_stpE0Bi_
FNDA:0,_RNCINvMs6_NtNtNtNtNtCscJhqz4rleTI_11atlas_local6client17create_deployment5tests39___mock_MockDocker_DockerCreateContainer18___create_containerNtB8_11Expectation12return_constpE0Bi_
FNDA:0,_RNCINvMs6_NtNtNtNtNtCscJhqz4rleTI_11atlas_local6client17create_deployment5tests39___mock_MockDocker_DockerCreateContainer18___create_containerNtB8_11Expectation15return_const_stpE0Bi_
FNDA:0,_RNCINvMs6_NtNtNtNtNtCscJhqz4rleTI_11atlas_local6client17create_deployment5tests40___mock_MockDocker_DockerInspectContainer19___inspect_containerNtB8_11Expectation12return_constpE0Bi_
FNDA:0,_RNCINvMs6_NtNtNtNtNtCscJhqz4rleTI_11atlas_local6client17create_deployment5tests40___mock_MockDocker_DockerInspectContainer19___inspect_containerNtB8_11Expectation15return_const_stpE0Bi_
FNDA:0,_RNvMs0_NtNtNtCscJhqz4rleTI_11atlas_local6client17create_deployment5testsNtB5_26MockDocker_DockerPullImage10checkpoint
FNDA:0,_RNvMs2_NtNtNtCscJhqz4rleTI_11atlas_local6client17create_deployment5testsNtB5_32MockDocker_DockerCreateContainer10checkpoint
FNDA:0,_RNvMs4_NtNtNtCscJhqz4rleTI_11atlas_local6client17create_deployment5testsNtB5_31MockDocker_DockerStartContainer10checkpoint
FNDA:0,_RNvMs4_NtNtNtNtNtCscJhqz4rleTI_11atlas_local6client17create_deployment5tests33___mock_MockDocker_DockerPullImage12___pull_imageNtB5_6Common11in_sequence
FNDA:0,_RNvMs4_NtNtNtNtNtCscJhqz4rleTI_11atlas_local6client17create_deployment5tests33___mock_MockDocker_DockerPullImage12___pull_imageNtB5_6Common5never
FNDA:0,_RNvMs4_NtNtNtNtNtCscJhqz4rleTI_11atlas_local6client17create_deployment5tests38___mock_MockDocker_DockerStartContainer17___start_containerNtB5_6Common11in_sequence
FNDA:0,_RNvMs4_NtNtNtNtNtCscJhqz4rleTI_11atlas_local6client17create_deployment5tests38___mock_MockDocker_DockerStartContainer17___start_containerNtB5_6Common5never
FNDA:0,_RNvMs4_NtNtNtNtNtCscJhqz4rleTI_11atlas_local6client17create_deployment5tests39___mock_MockDocker_DockerCreateContainer18___create_containerNtB5_6Common11in_sequence
FNDA:0,_RNvMs4_NtNtNtNtNtCscJhqz4rleTI_11atlas_local6client17create_deployment5tests39___mock_MockDocker_DockerCreateContainer18___create_containerNtB5_6Common5never
FNDA:0,_RNvMs4_NtNtNtNtNtCscJhqz4rleTI_11atlas_local6client17create_deployment5tests40___mock_MockDocker_DockerInspectContainer19___inspect_containerNtB5_6Common11in_sequence
FNDA:0,_RNvMs4_NtNtNtNtNtCscJhqz4rleTI_11atlas_local6client17create_deployment5tests40___mock_MockDocker_DockerInspectContainer19___inspect_containerNtB5_6Common5never
FNDA:0,_RNvMs6_NtNtNtCscJhqz4rleTI_11atlas_local6client17create_deployment5testsNtB5_33MockDocker_DockerInspectContainer10checkpoint
FNDA:0,_RNvMs6_NtNtNtNtNtCscJhqz4rleTI_11atlas_local6client17create_deployment5tests33___mock_MockDocker_DockerPullImage12___pull_imageNtB5_11Expectation11in_sequence
FNDA:0,_RNvMs6_NtNtNtNtNtCscJhqz4rleTI_11atlas_local6client17create_deployment5tests33___mock_MockDocker_DockerPullImage12___pull_imageNtB5_11Expectation3new
FNDA:0,_RNvMs6_NtNtNtNtNtCscJhqz4rleTI_11atlas_local6client17create_deployment5tests33___mock_MockDocker_DockerPullImage12___pull_imageNtB5_11Expectation4once
FNDA:0,_RNvMs6_NtNtNtNtNtCscJhqz4rleTI_11atlas_local6client17create_deployment5tests33___mock_MockDocker_DockerPullImage12___pull_imageNtB5_11Expectation5never
FNDA:0,_RNvMs6_NtNtNtNtNtCscJhqz4rleTI_11atlas_local6client17create_deployment5tests38___mock_MockDocker_DockerStartContainer17___start_containerNtB5_11Expectation11in_sequence
FNDA:0,_RNvMs6_NtNtNtNtNtCscJhqz4rleTI_11atlas_local6client17create_deployment5tests38___mock_MockDocker_DockerStartContainer17___start_containerNtB5_11Expectation3new
FNDA:0,_RNvMs6_NtNtNtNtNtCscJhqz4rleTI_11atlas_local6client17create_deployment5tests38___mock_MockDocker_DockerStartContainer17___start_containerNtB5_11Expectation4once
FNDA:0,_RNvMs6_NtNtNtNtNtCscJhqz4rleTI_11atlas_local6client17create_deployment5tests38___mock_MockDocker_DockerStartContainer17___start_containerNtB5_11Expectation5never
FNDA:0,_RNvMs6_NtNtNtNtNtCscJhqz4rleTI_11atlas_local6client17create_deployment5tests39___mock_MockDocker_DockerCreateContainer18___create_containerNtB5_11Expectation11in_sequence
FNDA:0,_RNvMs6_NtNtNtNtNtCscJhqz4rleTI_11atlas_local6client17create_deployment5tests39___mock_MockDocker_DockerCreateContainer18___create_containerNtB5_11Expectation3new
FNDA:0,_RNvMs6_NtNtNtNtNtCscJhqz4rleTI_11atlas_local6client17create_deployment5tests39___mock_MockDocker_DockerCreateContainer18___create_containerNtB5_11Expectation4once
FNDA:0,_RNvMs6_NtNtNtNtNtCscJhqz4rleTI_11atlas_local6client17create_deployment5tests39___mock_MockDocker_DockerCreateContainer18___create_containerNtB5_11Expectation5never
FNDA:0,_RNvMs6_NtNtNtNtNtCscJhqz4rleTI_11atlas_local6client17create_deployment5tests40___mock_MockDocker_DockerInspectContainer19___inspect_containerNtB5_11Expectation11in_sequence
FNDA:0,_RNvMs6_NtNtNtNtNtCscJhqz4rleTI_11atlas_local6client17create_deployment5tests40___mock_MockDocker_DockerInspectContainer19___inspect_containerNtB5_11Expectation3new
FNDA:0,_RNvMs6_NtNtNtNtNtCscJhqz4rleTI_11atlas_local6client17create_deployment5tests40___mock_MockDocker_DockerInspectContainer19___inspect_containerNtB5_11Expectation4once
FNDA:0,_RNvMs6_NtNtNtNtNtCscJhqz4rleTI_11atlas_local6client17create_deployment5tests40___mock_MockDocker_DockerInspectContainer19___inspect_containerNtB5_11Expectation5never
FNDA:0,_RNvMs7_NtNtNtCscJhqz4rleTI_11atlas_local6client17create_deployment5testsNtB5_10MockDocker10checkpoint
FNDA:0,_RNvMs8_NtNtNtNtNtCscJhqz4rleTI_11atlas_local6client17create_deployment5tests33___mock_MockDocker_DockerPullImage12___pull_imageNtB5_12Expectations10checkpoint
FNDA:0,_RNvMs8_NtNtNtNtNtCscJhqz4rleTI_11atlas_local6client17create_deployment5tests38___mock_MockDocker_DockerStartContainer17___start_containerNtB5_12Expectations10checkpoint
FNDA:0,_RNvMs8_NtNtNtNtNtCscJhqz4rleTI_11atlas_local6client17create_deployment5tests39___mock_MockDocker_DockerCreateContainer18___create_containerNtB5_12Expectations10checkpoint
FNDA:0,_RNvMs8_NtNtNtNtNtCscJhqz4rleTI_11atlas_local6client17create_deployment5tests40___mock_MockDocker_DockerInspectContainer19___inspect_containerNtB5_12Expectations10checkpoint
FNDA:12,_RNCNCNvMNtNtCscJhqz4rleTI_11atlas_local6client17create_deploymentINtB8_6ClientNtNtB6_5tests10MockDockerE17create_deployment00Ba_
FNDA:2,_RNCNCNvMNtNtCscJhqz4rleTI_11atlas_local6client17create_deploymentINtB8_6ClientNtNtB6_5tests10MockDockerE17create_deployment0s0_0Ba_
FNDA:1,_RNCNCNvMNtNtCscJhqz4rleTI_11atlas_local6client17create_deploymentINtB8_6ClientNtNtB6_5tests10MockDockerE17create_deployment0s1_0Ba_
FNDA:0,_RNCNCNvMNtNtCscJhqz4rleTI_11atlas_local6client17create_deploymentINtB8_6ClientNtNtB6_5tests10MockDockerE17create_deployment0s_0Ba_
FNDA:3,_RNCNCNvMs_NtNtCscJhqz4rleTI_11atlas_local6client17create_deploymentINtBa_6ClientNtNtB8_5tests10MockDockerE27wait_for_healthy_deployment0s0_0Bc_
FNDA:12,_RNCNvMNtNtCscJhqz4rleTI_11atlas_local6client17create_deploymentINtB6_6ClientNtNtB4_5tests10MockDockerE17create_deployment0B8_
FNDA:7,_RNCNvMs_NtNtCscJhqz4rleTI_11atlas_local6client17create_deploymentINtB8_6ClientNtNtB6_5tests10MockDockerE27wait_for_healthy_deployment0Ba_
FNDA:9,_RINvMs4_NtNtNtNtNtCscJhqz4rleTI_11atlas_local6client17create_deployment5tests40___mock_MockDocker_DockerInspectContainer19___inspect_containerNtB6_6Common4withINtNtCsaS4gknD0Sqc_10predicates3ord11EqPredicateReEIB2y_INtNtCsaNl6UpbT7bw_4core6option6OptionNtNtCsiAmkw3NBFjt_13bollard_stubs16query_parameters23InspectContainerOptionsEEEBg_
FNDA:8,_RINvMs4_NtNtNtNtNtCscJhqz4rleTI_11atlas_local6client17create_deployment5tests40___mock_MockDocker_DockerInspectContainer19___inspect_containerNtB6_6Common5timesjEBg_
FNDA:9,_RINvMs6_NtNtNtNtNtCscJhqz4rleTI_11atlas_local6client17create_deployment5tests40___mock_MockDocker_DockerInspectContainer19___inspect_containerNtB6_11Expectation4withINtNtCsaS4gknD0Sqc_10predicates3ord11EqPredicateReEIB2E_INtNtCsaNl6UpbT7bw_4core6option6OptionNtNtCsiAmkw3NBFjt_13bollard_stubs16query_parameters23InspectContainerOptionsEEEBg_
FNDA:8,_RINvMs6_NtNtNtNtNtCscJhqz4rleTI_11atlas_local6client17create_deployment5tests40___mock_MockDocker_DockerInspectContainer19___inspect_containerNtB6_11Expectation5timesjEBg_
FNDA:1,_RINvMs6_NtNtNtNtNtCscJhqz4rleTI_11atlas_local6client17create_deployment5tests40___mock_MockDocker_DockerInspectContainer19___inspect_containerNtB6_11Expectation9returningNCNCNvBa_s_22test_create_deployment0s1_0EBg_
FNDA:1,_RINvMs6_NtNtNtNtNtCscJhqz4rleTI_11atlas_local6client17create_deployment5tests40___mock_MockDocker_DockerInspectContainer19___inspect_containerNtB6_11Expectation9returningNCNCNvBa_s_30test_create_deployment_timeout0s1_0EBg_
FNDA:1,_RINvMs6_NtNtNtNtNtCscJhqz4rleTI_11atlas_local6client17create_deployment5tests40___mock_MockDocker_DockerInspectContainer19___inspect_containerNtB6_11Expectation9returningNCNCNvBa_s_40test_wait_for_healthy_deployment_retries0s1_0EBg_
FNDA:1,_RINvMs6_NtNtNtNtNtCscJhqz4rleTI_11atlas_local6client17create_deployment5tests40___mock_MockDocker_DockerInspectContainer19___inspect_containerNtB6_11Expectation9returningNCNCNvBa_s_40test_wait_for_healthy_deployment_retries0s2_0EBg_
FNDA:1,_RINvMs6_NtNtNtNtNtCscJhqz4rleTI_11atlas_local6client17create_deployment5tests40___mock_MockDocker_DockerInspectContainer19___inspect_containerNtB6_11Expectation9returningNCNCNvBa_s_41test_wait_for_healthy_deployment_disabled0s1_0EBg_
FNDA:1,_RINvMs6_NtNtNtNtNtCscJhqz4rleTI_11atlas_local6client17create_deployment5tests40___mock_MockDocker_DockerInspectContainer19___inspect_containerNtB6_11Expectation9returningNCNCNvBa_s_41test_wait_for_healthy_deployment_no_state0s1_0EBg_
FNDA:1,_RINvMs6_NtNtNtNtNtCscJhqz4rleTI_11atlas_local6client17create_deployment5tests40___mock_MockDocker_DockerInspectContainer19___inspect_containerNtB6_11Expectation9returningNCNCNvBa_s_42test_wait_for_healthy_deployment_no_health0s1_0EBg_
FNDA:1,_RINvMs6_NtNtNtNtNtCscJhqz4rleTI_11atlas_local6client17create_deployment5tests40___mock_MockDocker_DockerInspectContainer19___inspect_containerNtB6_11Expectation9returningNCNCNvBa_s_49test_wait_for_healthy_deployment_no_health_status0s1_0EBg_
FNDA:1,_RINvMs6_NtNtNtNtNtCscJhqz4rleTI_11atlas_local6client17create_deployment5tests40___mock_MockDocker_DockerInspectContainer19___inspect_containerNtB6_11Expectation9returningNCNCNvBa_s_60test_create_deployment_wait_for_healthy_deployment_unhealthy0s1_0EBg_
FNDA:26,_RNCNvMs0_NtNtNtNtNtCscJhqz4rleTI_11atlas_local6client17create_deployment5tests40___mock_MockDocker_DockerInspectContainer19___inspect_containerNtB7_7Matcher7matches0Bh_
FNDA:13,_RNCNvMsa_NtNtNtNtNtCscJhqz4rleTI_11atlas_local6client17create_deployment5tests40___mock_MockDocker_DockerInspectContainer19___inspect_containerNtB7_12Expectations4call0Bh_
FNDA:11,_RNCNvMsa_NtNtNtNtNtCscJhqz4rleTI_11atlas_local6client17create_deployment5tests40___mock_MockDocker_DockerInspectContainer19___inspect_containerNtB7_12Expectations4calls_0Bh_
FNDA:8,_RINvMs4_NtNtNtNtNtCscJhqz4rleTI_11atlas_local6client17create_deployment5tests38___mock_MockDocker_DockerStartContainer17___start_containerNtB6_6Common4withINtNtCsaS4gknD0Sqc_10predicates3ord11EqPredicateReEIB2u_INtNtCsaNl6UpbT7bw_4core6option6OptionNtNtCsiAmkw3NBFjt_13bollard_stubs16query_parameters21StartContainerOptionsEEEBg_
FNDA:9,_RINvMs4_NtNtNtNtNtCscJhqz4rleTI_11atlas_local6client17create_deployment5tests38___mock_MockDocker_DockerStartContainer17___start_containerNtB6_6Common5timesjEBg_
FNDA:8,_RINvMs6_NtNtNtNtNtCscJhqz4rleTI_11atlas_local6client17create_deployment5tests38___mock_MockDocker_DockerStartContainer17___start_containerNtB6_11Expectation4withINtNtCsaS4gknD0Sqc_10predicates3ord11EqPredicateReEIB2A_INtNtCsaNl6UpbT7bw_4core6option6OptionNtNtCsiAmkw3NBFjt_13bollard_stubs16query_parameters21StartContainerOptionsEEEBg_
FNDA:9,_RINvMs6_NtNtNtNtNtCscJhqz4rleTI_11atlas_local6client17create_deployment5tests38___mock_MockDocker_DockerStartContainer17___start_containerNtB6_11Expectation5timesjEBg_
FNDA:1,_RINvMs6_NtNtNtNtNtCscJhqz4rleTI_11atlas_local6client17create_deployment5tests38___mock_MockDocker_DockerStartContainer17___start_containerNtB6_11Expectation9returningNCNCNvBa_s_22test_create_deployment0s0_0EBg_
FNDA:1,_RINvMs6_NtNtNtNtNtCscJhqz4rleTI_11atlas_local6client17create_deployment5tests38___mock_MockDocker_DockerStartContainer17___start_containerNtB6_11Expectation9returningNCNCNvBa_s_30test_create_deployment_timeout0s0_0EBg_
FNDA:1,_RINvMs6_NtNtNtNtNtCscJhqz4rleTI_11atlas_local6client17create_deployment5tests38___mock_MockDocker_DockerStartContainer17___start_containerNtB6_11Expectation9returningNCNCNvBa_s_40test_wait_for_healthy_deployment_retries0s0_0EBg_
FNDA:1,_RINvMs6_NtNtNtNtNtCscJhqz4rleTI_11atlas_local6client17create_deployment5tests38___mock_MockDocker_DockerStartContainer17___start_containerNtB6_11Expectation9returningNCNCNvBa_s_41test_wait_for_healthy_deployment_disabled0s0_0EBg_
FNDA:1,_RINvMs6_NtNtNtNtNtCscJhqz4rleTI_11atlas_local6client17create_deployment5tests38___mock_MockDocker_DockerStartContainer17___start_containerNtB6_11Expectation9returningNCNCNvBa_s_41test_wait_for_healthy_deployment_no_state0s0_0EBg_
FNDA:1,_RINvMs6_NtNtNtNtNtCscJhqz4rleTI_11atlas_local6client17create_deployment5tests38___mock_MockDocker_DockerStartContainer17___start_containerNtB6_11Expectation9returningNCNCNvBa_s_42test_wait_for_healthy_deployment_no_health0s0_0EBg_
FNDA:1,_RINvMs6_NtNtNtNtNtCscJhqz4rleTI_11atlas_local6client17create_deployment5tests38___mock_MockDocker_DockerStartContainer17___start_containerNtB6_11Expectation9returningNCNCNvBa_s_44test_create_deployment_start_container_error0s0_0EBg_
FNDA:1,_RINvMs6_NtNtNtNtNtCscJhqz4rleTI_11atlas_local6client17create_deployment5tests38___mock_MockDocker_DockerStartContainer17___start_containerNtB6_11Expectation9returningNCNCNvBa_s_49test_wait_for_healthy_deployment_no_health_status0s0_0EBg_
FNDA:1,_RINvMs6_NtNtNtNtNtCscJhqz4rleTI_11atlas_local6client17create_deployment5tests38___mock_MockDocker_DockerStartContainer17___start_containerNtB6_11Expectation9returningNCNCNvBa_s_60test_create_deployment_wait_for_healthy_deployment_unhealthy0s0_0EBg_
FNDA:16,_RNCNvMs0_NtNtNtNtNtCscJhqz4rleTI_11atlas_local6client17create_deployment5tests38___mock_MockDocker_DockerStartContainer17___start_containerNtB7_7Matcher7matches0Bh_
FNDA:9,_RNCNvMsa_NtNtNtNtNtCscJhqz4rleTI_11atlas_local6client17create_deployment5tests38___mock_MockDocker_DockerStartContainer17___start_containerNtB7_12Expectations4call0Bh_
FNDA:9,_RNCNvMsa_NtNtNtNtNtCscJhqz4rleTI_11atlas_local6client17create_deployment5tests38___mock_MockDocker_DockerStartContainer17___start_containerNtB7_12Expectations4calls_0Bh_
FNF:85
FNH:84
DA:39,12
DA:40,12
DA:41,12
DA:42,12
DA:44,12
DA:45,12
DA:46,12
DA:47,12
DA:48,12
DA:49,12
DA:50,12
DA:51,12
DA:52,12
DA:53,12
DA:55,12
DA:58,11
DA:59,11
DA:64,11
DA:65,11
DA:66,11
DA:67,11
DA:69,11
DA:70,11
DA:71,11
DA:72,11
DA:75,1
DA:76,1
DA:77,2
DA:80,9
DA:81,9
DA:82,9
DA:83,9
DA:86,8
DA:89,7
DA:90,7
DA:91,7
DA:92,7
DA:93,7
DA:94,7
DA:95,7
DA:96,7
DA:97,7
DA:98,1
DA:99,1
DA:100,1
DA:101,1
DA:102,7
DA:103,1
DA:106,3
DA:107,3
DA:108,3
DA:109,12
DA:113,7
DA:114,7
DA:115,7
DA:116,7
DA:119,8
DA:120,8
DA:121,8
DA:122,8
DA:123,8
DA:125,8
DA:126,8
DA:127,8
DA:128,3
DA:129,3
DA:131,5
DA:132,2
DA:134,2
DA:137,1
DA:138,1
DA:139,1
DA:143,6
DA:164,12
DA:169,11
DA:170,11
DA:171,11
DA:177,9
DA:178,9
DA:179,9
DA:185,11
DA:186,11
DA:187,11
DA:190,1294
DA:192,5
DA:193,5
DA:194,5
DA:195,5
DA:196,5
DA:197,5
DA:198,5
DA:199,5
DA:200,5
DA:201,5
DA:202,5
DA:203,5
DA:204,5
DA:205,5
DA:206,5
DA:207,5
DA:208,5
DA:209,5
DA:210,5
DA:211,5
DA:212,5
DA:213,5
DA:214,5
DA:215,5
DA:217,1
DA:218,1
DA:219,1
DA:220,1
DA:221,1
DA:222,1
DA:223,1
DA:224,1
DA:225,1
DA:226,1
DA:227,1
DA:228,1
DA:229,1
DA:230,1
DA:231,1
DA:232,1
DA:233,1
DA:234,1
DA:235,1
DA:236,1
DA:237,1
DA:238,1
DA:239,1
DA:241,2
DA:242,2
DA:243,2
DA:244,2
DA:245,2
DA:246,2
DA:247,2
DA:248,2
DA:249,2
DA:250,2
DA:251,2
DA:252,2
DA:253,2
DA:254,2
DA:255,2
DA:256,2
DA:257,2
DA:258,2
DA:259,2
DA:260,2
DA:261,2
DA:262,2
DA:263,2
DA:265,1
DA:266,1
DA:267,1
DA:268,1
DA:269,1
DA:270,1
DA:271,1
DA:272,1
DA:273,1
DA:274,1
DA:275,1
DA:276,1
DA:277,1
DA:278,1
DA:279,1
DA:280,1
DA:281,1
DA:283,1
DA:284,1
DA:285,1
DA:286,1
DA:287,1
DA:288,1
DA:289,1
DA:290,1
DA:291,1
DA:292,1
DA:293,1
DA:294,1
DA:295,1
DA:296,1
DA:297,1
DA:298,1
DA:299,1
DA:300,1
DA:301,1
DA:302,1
DA:304,1
DA:305,1
DA:306,1
DA:307,1
DA:308,1
DA:309,1
DA:310,1
DA:311,1
DA:312,1
DA:313,1
DA:314,1
DA:315,1
DA:316,1
DA:317,1
DA:318,1
DA:319,1
DA:320,1
DA:321,1
DA:322,1
DA:323,1
DA:324,1
DA:325,1
DA:326,1
DA:329,1
DA:331,1
DA:332,1
DA:333,1
DA:334,1
DA:335,1
DA:338,1
DA:339,1
DA:340,1
DA:341,1
DA:342,1
DA:343,1
DA:344,1
DA:345,1
DA:347,1
DA:348,1
DA:349,1
DA:350,1
DA:351,1
DA:352,1
DA:353,1
DA:354,1
DA:355,1
DA:357,1
DA:358,1
DA:359,1
DA:360,1
DA:361,1
DA:362,1
DA:363,1
DA:364,1
DA:366,1
DA:367,1
DA:368,1
DA:369,1
DA:370,1
DA:371,1
DA:372,1
DA:373,2
DA:375,1
DA:378,1
DA:381,1
DA:382,1
DA:385,1
DA:387,1
DA:388,1
DA:389,1
DA:390,1
DA:391,1
DA:394,1
DA:395,1
DA:396,1
DA:397,1
DA:398,1
DA:399,1
DA:401,1
DA:404,1
DA:407,1
DA:408,1
DA:409,1
DA:410,1
DA:411,1
DA:412,1
DA:415,1
DA:417,1
DA:418,1
DA:419,1
DA:420,1
DA:421,1
DA:424,1
DA:425,1
DA:426,1
DA:427,1
DA:429,1
DA:430,1
DA:431,1
DA:432,1
DA:433,1
DA:434,1
DA:435,1
DA:436,1
DA:437,1
DA:439,1
DA:442,1
DA:445,1
DA:446,1
DA:447,1
DA:448,1
DA:449,1
DA:450,1
DA:451,1
DA:452,1
DA:455,1
DA:457,1
DA:458,1
DA:459,1
DA:460,1
DA:461,1
DA:464,1
DA:465,1
DA:466,1
DA:467,1
DA:469,1
DA:470,1
DA:471,1
DA:472,1
DA:473,1
DA:474,1
DA:475,1
DA:476,1
DA:477,1
DA:479,1
DA:482,1
DA:485,1
DA:486,1
DA:487,1
DA:488,1
DA:489,1
DA:490,1
DA:493,1
DA:495,1
DA:496,1
DA:497,1
DA:498,1
DA:499,1
DA:502,1
DA:503,1
DA:504,1
DA:505,1
DA:507,1
DA:508,1
DA:509,1
DA:510,1
DA:511,1
DA:512,1
DA:513,1
DA:514,1
DA:515,1
DA:517,1
DA:518,1
DA:519,1
DA:520,1
DA:521,1
DA:522,1
DA:523,1
DA:524,1
DA:525,1
DA:527,1
DA:530,1
DA:533,1
DA:534,1
DA:535,1
DA:536,1
DA:537,1
DA:538,1
DA:541,1
DA:543,1
DA:544,1
DA:545,1
DA:546,1
DA:547,1
DA:550,1
DA:551,1
DA:552,1
DA:553,1
DA:554,1
DA:555,1
DA:556,1
DA:557,1
DA:559,1
DA:560,1
DA:561,1
DA:562,1
DA:563,1
DA:564,1
DA:565,1
DA:566,1
DA:567,1
DA:569,1
DA:570,1
DA:571,1
DA:572,1
DA:573,1
DA:574,1
DA:575,1
DA:576,1
DA:578,1
DA:579,1
DA:580,1
DA:581,1
DA:582,1
DA:583,1
DA:584,1
DA:585,1
DA:587,1
DA:590,1
DA:593,1
DA:594,1
DA:595,1
DA:596,1
DA:597,1
DA:598,1
DA:601,1
DA:603,1
DA:604,1
DA:605,1
DA:606,1
DA:607,1
DA:610,1
DA:611,1
DA:612,1
DA:613,1
DA:614,1
DA:615,1
DA:616,1
DA:617,1
DA:619,1
DA:620,1
DA:621,1
DA:622,1
DA:623,1
DA:624,1
DA:625,1
DA:626,1
DA:627,1
DA:629,1
DA:630,1
DA:631,1
DA:632,1
DA:633,1
DA:634,1
DA:635,1
DA:636,1
DA:638,1
DA:639,1
DA:640,1
DA:641,1
DA:642,1
DA:643,1
DA:644,1
DA:645,1
DA:647,1
DA:648,1
DA:649,1
DA:650,1
DA:651,1
DA:652,1
DA:653,1
DA:654,2
DA:656,1
DA:659,1
DA:662,1
DA:663,1
DA:666,1
DA:668,1
DA:669,1
DA:670,1
DA:671,1
DA:672,1
DA:673,1
DA:676,1
DA:677,1
DA:678,1
DA:679,1
DA:680,1
DA:681,1
DA:682,1
DA:683,1
DA:685,1
DA:686,1
DA:687,1
DA:688,1
DA:689,1
DA:690,1
DA:691,1
DA:692,1
DA:693,1
DA:695,1
DA:696,1
DA:697,1
DA:698,1
DA:699,1
DA:700,1
DA:701,1
DA:702,1
DA:704,1
DA:705,1
DA:706,1
DA:707,1
DA:708,1
DA:709,1
DA:710,1
DA:711,1
DA:713,1
DA:716,1
DA:719,1
DA:720,1
DA:723,1
DA:725,1
DA:726,1
DA:727,1
DA:728,1
DA:729,1
DA:730,1
DA:731,1
DA:734,1
DA:735,1
DA:736,1
DA:737,1
DA:738,1
DA:739,1
DA:740,1
DA:741,1
DA:743,1
DA:744,1
DA:745,1
DA:746,1
DA:747,1
DA:748,1
DA:749,1
DA:750,1
DA:751,1
DA:753,1
DA:754,1
DA:755,1
DA:756,1
DA:757,1
DA:758,1
DA:759,1
DA:760,1
DA:763,1
DA:764,1
DA:765,1
DA:766,1
DA:767,1
DA:768,1
DA:769,1
DA:771,1
DA:774,1
DA:777,1
DA:778,1
DA:779,1
DA:780,1
DA:781,1
DA:782,1
DA:783,1
DA:784,1
DA:785,1
DA:786,1
DA:789,1
DA:791,1
DA:792,1
DA:793,1
DA:794,1
DA:795,1
DA:798,1
DA:799,1
DA:800,1
DA:801,1
DA:802,1
DA:803,1
DA:804,1
DA:805,1
DA:807,1
DA:808,1
DA:809,1
DA:810,1
DA:811,1
DA:812,1
DA:813,1
DA:814,1
DA:815,1
DA:817,1
DA:818,1
DA:819,1
DA:820,1
DA:821,1
DA:822,1
DA:823,1
DA:824,1
DA:826,1
DA:827,1
DA:828,1
DA:829,1
DA:830,1
DA:831,1
DA:832,1
DA:833,1
DA:835,1
DA:838,1
DA:841,1
DA:842,1
DA:843,1
DA:844,1
DA:845,1
DA:846,1
DA:847,1
DA:848,1
DA:851,1
DA:853,1
DA:854,1
DA:855,1
DA:856,1
DA:857,1
DA:860,1
DA:861,1
DA:862,1
DA:863,1
DA:864,1
DA:865,1
DA:866,1
DA:867,1
DA:869,1
DA:870,1
DA:871,1
DA:872,1
DA:873,1
DA:874,1
DA:875,1
DA:876,1
DA:877,1
DA:879,1
DA:880,1
DA:881,1
DA:882,1
DA:883,1
DA:884,1
DA:885,1
DA:886,1
DA:888,1
DA:889,1
DA:890,1
DA:891,1
DA:892,1
DA:893,1
DA:894,1
DA:895,1
DA:897,1
DA:900,1
DA:903,1
DA:904,1
DA:905,1
DA:906,1
DA:907,1
DA:908,1
DA:909,1
DA:910,1
DA:913,1
DA:915,1
DA:916,1
DA:917,1
DA:918,1
DA:919,1
DA:922,1
DA:923,1
DA:924,1
DA:925,1
DA:926,1
DA:927,1
DA:928,1
DA:929,1
DA:931,1
DA:932,1
DA:933,1
DA:934,1
DA:935,1
DA:936,1
DA:937,1
DA:938,1
DA:939,1
DA:941,1
DA:942,1
DA:943,1
DA:944,1
DA:945,1
DA:946,1
DA:947,1
DA:948,1
DA:950,1
DA:951,1
DA:952,1
DA:953,1
DA:954,1
DA:955,1
DA:956,1
DA:957,1
DA:959,1
DA:962,1
DA:965,1
DA:966,1
DA:967,1
DA:968,1
DA:969,1
DA:970,1
DA:971,1
DA:972,1
BRF:0
BRH:0
LF:805
LH:799
end_of_record
SF:/Users/jeroen.vervaeke/git/github.com/mongodb/atlas-local-lib/src/client/delete_deployment.rs
FN:79,_RNvMNtNtNtNtNtCscJhqz4rleTI_11atlas_local6client17delete_deployment5tests39___mock_MockDocker_DockerRemoveContainer18___remove_containerNtB2_5Rfunc8call_mut
FN:79,_RNvMs0_NtNtNtNtNtCscJhqz4rleTI_11atlas_local6client17delete_deployment5tests39___mock_MockDocker_DockerRemoveContainer18___remove_containerNtB5_7Matcher7matches
FN:79,_RNvMs4_NtNtNtNtNtCscJhqz4rleTI_11atlas_local6client17delete_deployment5tests39___mock_MockDocker_DockerRemoveContainer18___remove_containerNtB5_6Common15verify_sequence
FN:79,_RNvMs4_NtNtNtNtNtCscJhqz4rleTI_11atlas_local6client17delete_deployment5tests39___mock_MockDocker_DockerRemoveContainer18___remove_containerNtB5_6Common16satisfy_sequence
FN:79,_RNvMs4_NtNtNtNtNtCscJhqz4rleTI_11atlas_local6client17delete_deployment5tests39___mock_MockDocker_DockerRemoveContainer18___remove_containerNtB5_6Common4call
FN:79,_RNvMs4_NtNtNtNtNtCscJhqz4rleTI_11atlas_local6client17delete_deployment5tests39___mock_MockDocker_DockerRemoveContainer18___remove_containerNtB5_6Common7is_done
FN:79,_RNvMs4_NtNtNtNtNtCscJhqz4rleTI_11atlas_local6client17delete_deployment5tests39___mock_MockDocker_DockerRemoveContainer18___remove_containerNtB5_6Common7matches
FN:79,_RNvMs6_NtNtNtNtNtCscJhqz4rleTI_11atlas_local6client17delete_deployment5tests39___mock_MockDocker_DockerRemoveContainer18___remove_containerNtB5_11Expectation4call
FN:79,_RNvMs6_NtNtNtNtNtCscJhqz4rleTI_11atlas_local6client17delete_deployment5tests39___mock_MockDocker_DockerRemoveContainer18___remove_containerNtB5_11Expectation7is_done
FN:79,_RNvMs6_NtNtNtNtNtCscJhqz4rleTI_11atlas_local6client17delete_deployment5tests39___mock_MockDocker_DockerRemoveContainer18___remove_containerNtB5_11Expectation7matches
FN:79,_RNvMs8_NtNtNtNtNtCscJhqz4rleTI_11atlas_local6client17delete_deployment5tests39___mock_MockDocker_DockerRemoveContainer18___remove_containerNtB5_12Expectations3new
FN:79,_RNvMs8_NtNtNtNtNtCscJhqz4rleTI_11atlas_local6client17delete_deployment5tests39___mock_MockDocker_DockerRemoveContainer18___remove_containerNtB5_12Expectations6expect
FN:79,_RNvMsa_NtNtNtNtNtCscJhqz4rleTI_11atlas_local6client17delete_deployment5tests39___mock_MockDocker_DockerRemoveContainer18___remove_containerNtB5_12Expectations4call
FN:79,_RNvXs1_NtNtNtNtNtCscJhqz4rleTI_11atlas_local6client17delete_deployment5tests39___mock_MockDocker_DockerRemoveContainer18___remove_containerNtB5_7MatcherNtNtCsaNl6UpbT7bw_4core7default7Default7default
FN:79,_RNvXs2_NtNtNtNtNtCscJhqz4rleTI_11atlas_local6client17delete_deployment5tests39___mock_MockDocker_DockerRemoveContainer18___remove_containerNtB5_7MatcherNtNtCsaNl6UpbT7bw_4core3fmt7Display3fmt
FN:79,_RNvXs3_NtNtNtNtNtCscJhqz4rleTI_11atlas_local6client17delete_deployment5tests39___mock_MockDocker_DockerRemoveContainer18___remove_containerNtB5_6CommonNtNtCsaNl6UpbT7bw_4core7default7Default7default
FN:79,_RNvXs7_NtNtNtNtNtCscJhqz4rleTI_11atlas_local6client17delete_deployment5tests39___mock_MockDocker_DockerRemoveContainer18___remove_containerNtB5_11ExpectationNtNtCsaNl6UpbT7bw_4core7default7Default7default
FN:79,_RNvXs9_NtNtNtNtNtCscJhqz4rleTI_11atlas_local6client17delete_deployment5tests39___mock_MockDocker_DockerRemoveContainer18___remove_containerNtB5_12ExpectationsNtNtCsaNl6UpbT7bw_4core7default7Default7default
FN:79,_RNvXs_NtNtNtNtNtCscJhqz4rleTI_11atlas_local6client17delete_deployment5tests39___mock_MockDocker_DockerRemoveContainer18___remove_containerNtB4_5RfuncNtNtCsaNl6UpbT7bw_4core7default7Default7default
FN:79,_RNvMs5_NtNtNtCscJhqz4rleTI_11atlas_local6client17delete_deployment5testsNtB5_10MockDocker3new
FN:79,_RNvMs7_NtNtNtCscJhqz4rleTI_11atlas_local6client17delete_deployment5testsNtB5_10MockDocker21expect_stop_container
FN:79,_RNvMs9_NtNtNtCscJhqz4rleTI_11atlas_local6client17delete_deployment5testsNtB5_10MockDocker23expect_remove_container
FN:79,_RNvMsb_NtNtNtCscJhqz4rleTI_11atlas_local6client17delete_deployment5testsNtB5_10MockDocker24expect_inspect_container
FN:81,_RNvNtNtNtCscJhqz4rleTI_11atlas_local6client17delete_deployment5tests38create_test_container_inspect_response
FN:109,_RNvNtNtNtCscJhqz4rleTI_11atlas_local6client17delete_deployment5testss_22test_delete_deployment
FN:151,_RNvNtNtNtCscJhqz4rleTI_11atlas_local6client17delete_deployment5testss_43test_delete_deployment_get_deployment_error
FN:180,_RNvNtNtNtCscJhqz4rleTI_11atlas_local6client17delete_deployment5testss_43test_delete_deployment_stop_container_error
FN:214,_RNvNtNtNtCscJhqz4rleTI_11atlas_local6client17delete_deployment5testss_45test_delete_deployment_remove_container_error
FN:79,_RNvXNtNtNtCscJhqz4rleTI_11atlas_local6client17delete_deployment5testsNtB2_10MockDockerNtNtCsaNl6UpbT7bw_4core7default7Default7default
FN:79,_RNvXs1_NtNtNtCscJhqz4rleTI_11atlas_local6client17delete_deployment5testsNtB5_32MockDocker_DockerRemoveContainerNtNtCsaNl6UpbT7bw_4core7default7Default7default
FN:79,_RNvXs3_NtNtNtCscJhqz4rleTI_11atlas_local6client17delete_deployment5testsNtB5_33MockDocker_DockerInspectContainerNtNtCsaNl6UpbT7bw_4core7default7Default7default
FN:79,_RNvXs_NtNtNtCscJhqz4rleTI_11atlas_local6client17delete_deployment5testsNtB4_30MockDocker_DockerStopContainerNtNtCsaNl6UpbT7bw_4core7default7Default7default
FN:22,_RNvMNtNtCscJhqz4rleTI_11atlas_local6client17delete_deploymentINtB4_6ClientNtNtB2_5tests10MockDockerE17delete_deploymentB6_
FN:22,_RNCNvMNtNtCscJhqz4rleTI_11atlas_local6client17delete_deploymentINtB6_6ClientNtNtB4_5tests10MockDockerE17delete_deployment0B8_
FN:79,_RINvMs4_NtNtNtNtNtCscJhqz4rleTI_11atlas_local6client17delete_deployment5tests40___mock_MockDocker_DockerInspectContainer19___inspect_containerNtB6_6Common4withINtNtCsaS4gknD0Sqc_10predicates3ord11EqPredicateReEIB2y_INtNtCsaNl6UpbT7bw_4core6option6OptionNtNtCsiAmkw3NBFjt_13bollard_stubs16query_parameters23InspectContainerOptionsEEEBg_
FN:79,_RINvMs4_NtNtNtNtNtCscJhqz4rleTI_11atlas_local6client17delete_deployment5tests40___mock_MockDocker_DockerInspectContainer19___inspect_containerNtB6_6Common5timesjEBg_
FN:79,_RINvMs6_NtNtNtNtNtCscJhqz4rleTI_11atlas_local6client17delete_deployment5tests40___mock_MockDocker_DockerInspectContainer19___inspect_containerNtB6_11Expectation4withINtNtCsaS4gknD0Sqc_10predicates3ord11EqPredicateReEIB2E_INtNtCsaNl6UpbT7bw_4core6option6OptionNtNtCsiAmkw3NBFjt_13bollard_stubs16query_parameters23InspectContainerOptionsEEEBg_
FN:79,_RINvMs6_NtNtNtNtNtCscJhqz4rleTI_11atlas_local6client17delete_deployment5tests40___mock_MockDocker_DockerInspectContainer19___inspect_containerNtB6_11Expectation5timesjEBg_
FN:79,_RINvMs6_NtNtNtNtNtCscJhqz4rleTI_11atlas_local6client17delete_deployment5tests40___mock_MockDocker_DockerInspectContainer19___inspect_containerNtB6_11Expectation9returningNCNCNvBa_s_22test_delete_deployment00EBg_
FN:79,_RINvMs6_NtNtNtNtNtCscJhqz4rleTI_11atlas_local6client17delete_deployment5tests40___mock_MockDocker_DockerInspectContainer19___inspect_containerNtB6_11Expectation9returningNCNCNvBa_s_43test_delete_deployment_get_deployment_error00EBg_
FN:79,_RINvMs6_NtNtNtNtNtCscJhqz4rleTI_11atlas_local6client17delete_deployment5tests40___mock_MockDocker_DockerInspectContainer19___inspect_containerNtB6_11Expectation9returningNCNCNvBa_s_43test_delete_deployment_stop_container_error00EBg_
FN:79,_RINvMs6_NtNtNtNtNtCscJhqz4rleTI_11atlas_local6client17delete_deployment5tests40___mock_MockDocker_DockerInspectContainer19___inspect_containerNtB6_11Expectation9returningNCNCNvBa_s_45test_delete_deployment_remove_container_error00EBg_
FN:79,_RNCNvMs0_NtNtNtNtNtCscJhqz4rleTI_11atlas_local6client17delete_deployment5tests40___mock_MockDocker_DockerInspectContainer19___inspect_containerNtB7_7Matcher7matches0Bh_
FN:79,_RNCNvMsa_NtNtNtNtNtCscJhqz4rleTI_11atlas_local6client17delete_deployment5tests40___mock_MockDocker_DockerInspectContainer19___inspect_containerNtB7_12Expectations4call0Bh_
FN:79,_RNCNvMsa_NtNtNtNtNtCscJhqz4rleTI_11atlas_local6client17delete_deployment5tests40___mock_MockDocker_DockerInspectContainer19___inspect_containerNtB7_12Expectations4calls_0Bh_
FN:79,_RNvMNtNtNtNtNtCscJhqz4rleTI_11atlas_local6client17delete_deployment5tests40___mock_MockDocker_DockerInspectContainer19___inspect_containerNtB2_5Rfunc8call_mut
FN:79,_RNvMs0_NtNtNtNtNtCscJhqz4rleTI_11atlas_local6client17delete_deployment5tests40___mock_MockDocker_DockerInspectContainer19___inspect_containerNtB5_7Matcher7matches
FN:79,_RNvMs4_NtNtNtNtNtCscJhqz4rleTI_11atlas_local6client17delete_deployment5tests40___mock_MockDocker_DockerInspectContainer19___inspect_containerNtB5_6Common15verify_sequence
FN:79,_RNvMs4_NtNtNtNtNtCscJhqz4rleTI_11atlas_local6client17delete_deployment5tests40___mock_MockDocker_DockerInspectContainer19___inspect_containerNtB5_6Common16satisfy_sequence
FN:79,_RNvMs4_NtNtNtNtNtCscJhqz4rleTI_11atlas_local6client17delete_deployment5tests40___mock_MockDocker_DockerInspectContainer19___inspect_containerNtB5_6Common4call
FN:79,_RNvMs4_NtNtNtNtNtCscJhqz4rleTI_11atlas_local6client17delete_deployment5tests40___mock_MockDocker_DockerInspectContainer19___inspect_containerNtB5_6Common7is_done
FN:79,_RNvMs4_NtNtNtNtNtCscJhqz4rleTI_11atlas_local6client17delete_deployment5tests40___mock_MockDocker_DockerInspectContainer19___inspect_containerNtB5_6Common7matches
FN:79,_RNvMs6_NtNtNtNtNtCscJhqz4rleTI_11atlas_local6client17delete_deployment5tests40___mock_MockDocker_DockerInspectContainer19___inspect_containerNtB5_11Expectation4call
FN:79,_RNvMs6_NtNtNtNtNtCscJhqz4rleTI_11atlas_local6client17delete_deployment5tests40___mock_MockDocker_DockerInspectContainer19___inspect_containerNtB5_11Expectation7is_done
FN:79,_RNvMs6_NtNtNtNtNtCscJhqz4rleTI_11atlas_local6client17delete_deployment5tests40___mock_MockDocker_DockerInspectContainer19___inspect_containerNtB5_11Expectation7matches
FN:79,_RNvMs8_NtNtNtNtNtCscJhqz4rleTI_11atlas_local6client17delete_deployment5tests40___mock_MockDocker_DockerInspectContainer19___inspect_containerNtB5_12Expectations3new
FN:79,_RNvMs8_NtNtNtNtNtCscJhqz4rleTI_11atlas_local6client17delete_deployment5tests40___mock_MockDocker_DockerInspectContainer19___inspect_containerNtB5_12Expectations6expect
FN:79,_RNvMsa_NtNtNtNtNtCscJhqz4rleTI_11atlas_local6client17delete_deployment5tests40___mock_MockDocker_DockerInspectContainer19___inspect_containerNtB5_12Expectations4call
FN:79,_RNvXs1_NtNtNtNtNtCscJhqz4rleTI_11atlas_local6client17delete_deployment5tests40___mock_MockDocker_DockerInspectContainer19___inspect_containerNtB5_7MatcherNtNtCsaNl6UpbT7bw_4core7default7Default7default
FN:79,_RNvXs2_NtNtNtNtNtCscJhqz4rleTI_11atlas_local6client17delete_deployment5tests40___mock_MockDocker_DockerInspectContainer19___inspect_containerNtB5_7MatcherNtNtCsaNl6UpbT7bw_4core3fmt7Display3fmt
FN:79,_RNvXs3_NtNtNtNtNtCscJhqz4rleTI_11atlas_local6client17delete_deployment5tests40___mock_MockDocker_DockerInspectContainer19___inspect_containerNtB5_6CommonNtNtCsaNl6UpbT7bw_4core7default7Default7default
FN:79,_RNvXs7_NtNtNtNtNtCscJhqz4rleTI_11atlas_local6client17delete_deployment5tests40___mock_MockDocker_DockerInspectContainer19___inspect_containerNtB5_11ExpectationNtNtCsaNl6UpbT7bw_4core7default7Default7default
FN:79,_RNvXs9_NtNtNtNtNtCscJhqz4rleTI_11atlas_local6client17delete_deployment5tests40___mock_MockDocker_DockerInspectContainer19___inspect_containerNtB5_12ExpectationsNtNtCsaNl6UpbT7bw_4core7default7Default7default
FN:79,_RNvXs_NtNtNtNtNtCscJhqz4rleTI_11atlas_local6client17delete_deployment5tests40___mock_MockDocker_DockerInspectContainer19___inspect_containerNtB4_5RfuncNtNtCsaNl6UpbT7bw_4core7default7Default7default
FN:79,_RNvXs5_NtNtNtNtNtCscJhqz4rleTI_11atlas_local6client17delete_deployment5tests37___mock_MockDocker_DockerStopContainer16___stop_containerNtB5_6CommonNtNtNtCsaNl6UpbT7bw_4core3ops4drop4Drop4drop
FN:79,_RNvXs5_NtNtNtNtNtCscJhqz4rleTI_11atlas_local6client17delete_deployment5tests39___mock_MockDocker_DockerRemoveContainer18___remove_containerNtB5_6CommonNtNtNtCsaNl6UpbT7bw_4core3ops4drop4Drop4drop
FN:79,_RNvXs5_NtNtNtNtNtCscJhqz4rleTI_11atlas_local6client17delete_deployment5tests40___mock_MockDocker_DockerInspectContainer19___inspect_containerNtB5_6CommonNtNtNtCsaNl6UpbT7bw_4core3ops4drop4Drop4drop
FN:79,_RINvMs4_NtNtNtNtNtCscJhqz4rleTI_11atlas_local6client17delete_deployment5tests37___mock_MockDocker_DockerStopContainer16___stop_containerNtB6_6Common5withfpEBg_
FN:79,_RINvMs4_NtNtNtNtNtCscJhqz4rleTI_11atlas_local6client17delete_deployment5tests37___mock_MockDocker_DockerStopContainer16___stop_containerNtB6_6Common8withf_stpEBg_
FN:79,_RINvMs4_NtNtNtNtNtCscJhqz4rleTI_11atlas_local6client17delete_deployment5tests39___mock_MockDocker_DockerRemoveContainer18___remove_containerNtB6_6Common5withfpEBg_
FN:79,_RINvMs4_NtNtNtNtNtCscJhqz4rleTI_11atlas_local6client17delete_deployment5tests39___mock_MockDocker_DockerRemoveContainer18___remove_containerNtB6_6Common8withf_stpEBg_
FN:79,_RINvMs4_NtNtNtNtNtCscJhqz4rleTI_11atlas_local6client17delete_deployment5tests40___mock_MockDocker_DockerInspectContainer19___inspect_containerNtB6_6Common5withfpEBg_
FN:79,_RINvMs4_NtNtNtNtNtCscJhqz4rleTI_11atlas_local6client17delete_deployment5tests40___mock_MockDocker_DockerInspectContainer19___inspect_containerNtB6_6Common8withf_stpEBg_
FN:79,_RINvMs6_NtNtNtNtNtCscJhqz4rleTI_11atlas_local6client17delete_deployment5tests37___mock_MockDocker_DockerStopContainer16___stop_containerNtB6_11Expectation11return_oncepEBg_
FN:79,_RINvMs6_NtNtNtNtNtCscJhqz4rleTI_11atlas_local6client17delete_deployment5tests37___mock_MockDocker_DockerStopContainer16___stop_containerNtB6_11Expectation12return_constpEBg_
FN:79,_RINvMs6_NtNtNtNtNtCscJhqz4rleTI_11atlas_local6client17delete_deployment5tests37___mock_MockDocker_DockerStopContainer16___stop_containerNtB6_11Expectation12returning_stpEBg_
FN:79,_RINvMs6_NtNtNtNtNtCscJhqz4rleTI_11atlas_local6client17delete_deployment5tests37___mock_MockDocker_DockerStopContainer16___stop_containerNtB6_11Expectation14return_once_stpEBg_
FN:79,_RINvMs6_NtNtNtNtNtCscJhqz4rleTI_11atlas_local6client17delete_deployment5tests37___mock_MockDocker_DockerStopContainer16___stop_containerNtB6_11Expectation15return_const_stpEBg_
FN:79,_RINvMs6_NtNtNtNtNtCscJhqz4rleTI_11atlas_local6client17delete_deployment5tests37___mock_MockDocker_DockerStopContainer16___stop_containerNtB6_11Expectation5withfpEBg_
FN:79,_RINvMs6_NtNtNtNtNtCscJhqz4rleTI_11atlas_local6client17delete_deployment5tests37___mock_MockDocker_DockerStopContainer16___stop_containerNtB6_11Expectation8withf_stpEBg_
FN:79,_RINvMs6_NtNtNtNtNtCscJhqz4rleTI_11atlas_local6client17delete_deployment5tests39___mock_MockDocker_DockerRemoveContainer18___remove_containerNtB6_11Expectation11return_oncepEBg_
FN:79,_RINvMs6_NtNtNtNtNtCscJhqz4rleTI_11atlas_local6client17delete_deployment5tests39___mock_MockDocker_DockerRemoveContainer18___remove_containerNtB6_11Expectation12return_constpEBg_
FN:79,_RINvMs6_NtNtNtNtNtCscJhqz4rleTI_11atlas_local6client17delete_deployment5tests39___mock_MockDocker_DockerRemoveContainer18___remove_containerNtB6_11Expectation12returning_stpEBg_
FN:79,_RINvMs6_NtNtNtNtNtCscJhqz4rleTI_11atlas_local6client17delete_deployment5tests39___mock_MockDocker_DockerRemoveContainer18___remove_containerNtB6_11Expectation14return_once_stpEBg_
FN:79,_RINvMs6_NtNtNtNtNtCscJhqz4rleTI_11atlas_local6client17delete_deployment5tests39___mock_MockDocker_DockerRemoveContainer18___remove_containerNtB6_11Expectation15return_const_stpEBg_
FN:79,_RINvMs6_NtNtNtNtNtCscJhqz4rleTI_11atlas_local6client17delete_deployment5tests39___mock_MockDocker_DockerRemoveContainer18___remove_containerNtB6_11Expectation5withfpEBg_
FN:79,_RINvMs6_NtNtNtNtNtCscJhqz4rleTI_11atlas_local6client17delete_deployment5tests39___mock_MockDocker_DockerRemoveContainer18___remove_containerNtB6_11Expectation8withf_stpEBg_
FN:79,_RINvMs6_NtNtNtNtNtCscJhqz4rleTI_11atlas_local6client17delete_deployment5tests40___mock_MockDocker_DockerInspectContainer19___inspect_containerNtB6_11Expectation11return_oncepEBg_
FN:79,_RINvMs6_NtNtNtNtNtCscJhqz4rleTI_11atlas_local6client17delete_deployment5tests40___mock_MockDocker_DockerInspectContainer19___inspect_containerNtB6_11Expectation12return_constpEBg_
FN:79,_RINvMs6_NtNtNtNtNtCscJhqz4rleTI_11atlas_local6client17delete_deployment5tests40___mock_MockDocker_DockerInspectContainer19___inspect_containerNtB6_11Expectation12returning_stpEBg_
FN:79,_RINvMs6_NtNtNtNtNtCscJhqz4rleTI_11atlas_local6client17delete_deployment5tests40___mock_MockDocker_DockerInspectContainer19___inspect_containerNtB6_11Expectation14return_once_stpEBg_
FN:79,_RINvMs6_NtNtNtNtNtCscJhqz4rleTI_11atlas_local6client17delete_deployment5tests40___mock_MockDocker_DockerInspectContainer19___inspect_containerNtB6_11Expectation15return_const_stpEBg_
FN:79,_RINvMs6_NtNtNtNtNtCscJhqz4rleTI_11atlas_local6client17delete_deployment5tests40___mock_MockDocker_DockerInspectContainer19___inspect_containerNtB6_11Expectation5withfpEBg_
FN:79,_RINvMs6_NtNtNtNtNtCscJhqz4rleTI_11atlas_local6client17delete_deployment5tests40___mock_MockDocker_DockerInspectContainer19___inspect_containerNtB6_11Expectation8withf_stpEBg_
FN:79,_RNCINvMs6_NtNtNtNtNtCscJhqz4rleTI_11atlas_local6client17delete_deployment5tests37___mock_MockDocker_DockerStopContainer16___stop_containerNtB8_11Expectation12return_constpE0Bi_
FN:79,_RNCINvMs6_NtNtNtNtNtCscJhqz4rleTI_11atlas_local6client17delete_deployment5tests37___mock_MockDocker_DockerStopContainer16___stop_containerNtB8_11Expectation15return_const_stpE0Bi_
FN:79,_RNCINvMs6_NtNtNtNtNtCscJhqz4rleTI_11atlas_local6client17delete_deployment5tests39___mock_MockDocker_DockerRemoveContainer18___remove_containerNtB8_11Expectation12return_constpE0Bi_
FN:79,_RNCINvMs6_NtNtNtNtNtCscJhqz4rleTI_11atlas_local6client17delete_deployment5tests39___mock_MockDocker_DockerRemoveContainer18___remove_containerNtB8_11Expectation15return_const_stpE0Bi_
FN:79,_RNCINvMs6_NtNtNtNtNtCscJhqz4rleTI_11atlas_local6client17delete_deployment5tests40___mock_MockDocker_DockerInspectContainer19___inspect_containerNtB8_11Expectation12return_constpE0Bi_
FN:79,_RNCINvMs6_NtNtNtNtNtCscJhqz4rleTI_11atlas_local6client17delete_deployment5tests40___mock_MockDocker_DockerInspectContainer19___inspect_containerNtB8_11Expectation15return_const_stpE0Bi_
FN:79,_RNvMs0_NtNtNtCscJhqz4rleTI_11atlas_local6client17delete_deployment5testsNtB5_30MockDocker_DockerStopContainer10checkpoint
FN:79,_RNvMs2_NtNtNtCscJhqz4rleTI_11atlas_local6client17delete_deployment5testsNtB5_32MockDocker_DockerRemoveContainer10checkpoint
FN:79,_RNvMs4_NtNtNtCscJhqz4rleTI_11atlas_local6client17delete_deployment5testsNtB5_33MockDocker_DockerInspectContainer10checkpoint
FN:79,_RNvMs4_NtNtNtNtNtCscJhqz4rleTI_11atlas_local6client17delete_deployment5tests37___mock_MockDocker_DockerStopContainer16___stop_containerNtB5_6Common11in_sequence
FN:79,_RNvMs4_NtNtNtNtNtCscJhqz4rleTI_11atlas_local6client17delete_deployment5tests37___mock_MockDocker_DockerStopContainer16___stop_containerNtB5_6Common5never
FN:79,_RNvMs4_NtNtNtNtNtCscJhqz4rleTI_11atlas_local6client17delete_deployment5tests39___mock_MockDocker_DockerRemoveContainer18___remove_containerNtB5_6Common11in_sequence
FN:79,_RNvMs4_NtNtNtNtNtCscJhqz4rleTI_11atlas_local6client17delete_deployment5tests39___mock_MockDocker_DockerRemoveContainer18___remove_containerNtB5_6Common5never
FN:79,_RNvMs4_NtNtNtNtNtCscJhqz4rleTI_11atlas_local6client17delete_deployment5tests40___mock_MockDocker_DockerInspectContainer19___inspect_containerNtB5_6Common11in_sequence
FN:79,_RNvMs4_NtNtNtNtNtCscJhqz4rleTI_11atlas_local6client17delete_deployment5tests40___mock_MockDocker_DockerInspectContainer19___inspect_containerNtB5_6Common5never
FN:79,_RNvMs5_NtNtNtCscJhqz4rleTI_11atlas_local6client17delete_deployment5testsNtB5_10MockDocker10checkpoint
FN:79,_RNvMs6_NtNtNtNtNtCscJhqz4rleTI_11atlas_local6client17delete_deployment5tests37___mock_MockDocker_DockerStopContainer16___stop_containerNtB5_11Expectation11in_sequence
FN:79,_RNvMs6_NtNtNtNtNtCscJhqz4rleTI_11atlas_local6client17delete_deployment5tests37___mock_MockDocker_DockerStopContainer16___stop_containerNtB5_11Expectation3new
FN:79,_RNvMs6_NtNtNtNtNtCscJhqz4rleTI_11atlas_local6client17delete_deployment5tests37___mock_MockDocker_DockerStopContainer16___stop_containerNtB5_11Expectation4once
FN:79,_RNvMs6_NtNtNtNtNtCscJhqz4rleTI_11atlas_local6client17delete_deployment5tests37___mock_MockDocker_DockerStopContainer16___stop_containerNtB5_11Expectation5never
FN:79,_RNvMs6_NtNtNtNtNtCscJhqz4rleTI_11atlas_local6client17delete_deployment5tests39___mock_MockDocker_DockerRemoveContainer18___remove_containerNtB5_11Expectation11in_sequence
FN:79,_RNvMs6_NtNtNtNtNtCscJhqz4rleTI_11atlas_local6client17delete_deployment5tests39___mock_MockDocker_DockerRemoveContainer18___remove_containerNtB5_11Expectation3new
FN:79,_RNvMs6_NtNtNtNtNtCscJhqz4rleTI_11atlas_local6client17delete_deployment5tests39___mock_MockDocker_DockerRemoveContainer18___remove_containerNtB5_11Expectation4once
FN:79,_RNvMs6_NtNtNtNtNtCscJhqz4rleTI_11atlas_local6client17delete_deployment5tests39___mock_MockDocker_DockerRemoveContainer18___remove_containerNtB5_11Expectation5never
FN:79,_RNvMs6_NtNtNtNtNtCscJhqz4rleTI_11atlas_local6client17delete_deployment5tests40___mock_MockDocker_DockerInspectContainer19___inspect_containerNtB5_11Expectation11in_sequence
FN:79,_RNvMs6_NtNtNtNtNtCscJhqz4rleTI_11atlas_local6client17delete_deployment5tests40___mock_MockDocker_DockerInspectContainer19___inspect_containerNtB5_11Expectation3new
FN:79,_RNvMs6_NtNtNtNtNtCscJhqz4rleTI_11atlas_local6client17delete_deployment5tests40___mock_MockDocker_DockerInspectContainer19___inspect_containerNtB5_11Expectation4once
FN:79,_RNvMs6_NtNtNtNtNtCscJhqz4rleTI_11atlas_local6client17delete_deployment5tests40___mock_MockDocker_DockerInspectContainer19___inspect_containerNtB5_11Expectation5never
FN:79,_RNvMs8_NtNtNtNtNtCscJhqz4rleTI_11atlas_local6client17delete_deployment5tests37___mock_MockDocker_DockerStopContainer16___stop_containerNtB5_12Expectations10checkpoint
FN:79,_RNvMs8_NtNtNtNtNtCscJhqz4rleTI_11atlas_local6client17delete_deployment5tests39___mock_MockDocker_DockerRemoveContainer18___remove_containerNtB5_12Expectations10checkpoint
FN:79,_RNvMs8_NtNtNtNtNtCscJhqz4rleTI_11atlas_local6client17delete_deployment5tests40___mock_MockDocker_DockerInspectContainer19___inspect_containerNtB5_12Expectations10checkpoint
FN:79,_RINvMs4_NtNtNtNtNtCscJhqz4rleTI_11atlas_local6client17delete_deployment5tests39___mock_MockDocker_DockerRemoveContainer18___remove_containerNtB6_6Common4withINtNtCsaS4gknD0Sqc_10predicates3ord11EqPredicateReEIB2w_INtNtCsaNl6UpbT7bw_4core6option6OptionNtNtCsiAmkw3NBFjt_13bollard_stubs16query_parameters22RemoveContainerOptionsEEEBg_
FN:79,_RINvMs4_NtNtNtNtNtCscJhqz4rleTI_11atlas_local6client17delete_deployment5tests39___mock_MockDocker_DockerRemoveContainer18___remove_containerNtB6_6Common5timesjEBg_
FN:79,_RINvMs6_NtNtNtNtNtCscJhqz4rleTI_11atlas_local6client17delete_deployment5tests39___mock_MockDocker_DockerRemoveContainer18___remove_containerNtB6_11Expectation4withINtNtCsaS4gknD0Sqc_10predicates3ord11EqPredicateReEIB2C_INtNtCsaNl6UpbT7bw_4core6option6OptionNtNtCsiAmkw3NBFjt_13bollard_stubs16query_parameters22RemoveContainerOptionsEEEBg_
FN:79,_RINvMs6_NtNtNtNtNtCscJhqz4rleTI_11atlas_local6client17delete_deployment5tests39___mock_MockDocker_DockerRemoveContainer18___remove_containerNtB6_11Expectation5timesjEBg_
FN:79,_RINvMs6_NtNtNtNtNtCscJhqz4rleTI_11atlas_local6client17delete_deployment5tests39___mock_MockDocker_DockerRemoveContainer18___remove_containerNtB6_11Expectation9returningNCNCNvBa_s_22test_delete_deployment0s0_0EBg_
FN:79,_RINvMs6_NtNtNtNtNtCscJhqz4rleTI_11atlas_local6client17delete_deployment5tests39___mock_MockDocker_DockerRemoveContainer18___remove_containerNtB6_11Expectation9returningNCNCNvBa_s_45test_delete_deployment_remove_container_error0s0_0EBg_
FN:79,_RNCNvMs0_NtNtNtNtNtCscJhqz4rleTI_11atlas_local6client17delete_deployment5tests39___mock_MockDocker_DockerRemoveContainer18___remove_containerNtB7_7Matcher7matches0Bh_
FN:79,_RNCNvMsa_NtNtNtNtNtCscJhqz4rleTI_11atlas_local6client17delete_deployment5tests39___mock_MockDocker_DockerRemoveContainer18___remove_containerNtB7_12Expectations4call0Bh_
FN:79,_RNCNvMsa_NtNtNtNtNtCscJhqz4rleTI_11atlas_local6client17delete_deployment5tests39___mock_MockDocker_DockerRemoveContainer18___remove_containerNtB7_12Expectations4calls_0Bh_
FN:79,_RINvMs4_NtNtNtNtNtCscJhqz4rleTI_11atlas_local6client17delete_deployment5tests37___mock_MockDocker_DockerStopContainer16___stop_containerNtB6_6Common4withINtNtCsaS4gknD0Sqc_10predicates3ord11EqPredicateReEIB2s_INtNtCsaNl6UpbT7bw_4core6option6OptionNtNtCsiAmkw3NBFjt_13bollard_stubs16query_parameters20StopContainerOptionsEEEBg_
FN:79,_RINvMs4_NtNtNtNtNtCscJhqz4rleTI_11atlas_local6client17delete_deployment5tests37___mock_MockDocker_DockerStopContainer16___stop_containerNtB6_6Common5timesjEBg_
FN:79,_RINvMs6_NtNtNtNtNtCscJhqz4rleTI_11atlas_local6client17delete_deployment5tests37___mock_MockDocker_DockerStopContainer16___stop_containerNtB6_11Expectation4withINtNtCsaS4gknD0Sqc_10predicates3ord11EqPredicateReEIB2y_INtNtCsaNl6UpbT7bw_4core6option6OptionNtNtCsiAmkw3NBFjt_13bollard_stubs16query_parameters20StopContainerOptionsEEEBg_
FN:79,_RINvMs6_NtNtNtNtNtCscJhqz4rleTI_11atlas_local6client17delete_deployment5tests37___mock_MockDocker_DockerStopContainer16___stop_containerNtB6_11Expectation5timesjEBg_
FN:79,_RINvMs6_NtNtNtNtNtCscJhqz4rleTI_11atlas_local6client17delete_deployment5tests37___mock_MockDocker_DockerStopContainer16___stop_containerNtB6_11Expectation9returningNCNCNvBa_s_22test_delete_deployment0s_0EBg_
FN:79,_RINvMs6_NtNtNtNtNtCscJhqz4rleTI_11atlas_local6client17delete_deployment5tests37___mock_MockDocker_DockerStopContainer16___stop_containerNtB6_11Expectation9returningNCNCNvBa_s_43test_delete_deployment_stop_container_error0s_0EBg_
FN:79,_RINvMs6_NtNtNtNtNtCscJhqz4rleTI_11atlas_local6client17delete_deployment5tests37___mock_MockDocker_DockerStopContainer16___stop_containerNtB6_11Expectation9returningNCNCNvBa_s_45test_delete_deployment_remove_container_error0s_0EBg_
FN:79,_RNCNvMs0_NtNtNtNtNtCscJhqz4rleTI_11atlas_local6client17delete_deployment5tests37___mock_MockDocker_DockerStopContainer16___stop_containerNtB7_7Matcher7matches0Bh_
FN:79,_RNCNvMsa_NtNtNtNtNtCscJhqz4rleTI_11atlas_local6client17delete_deployment5tests37___mock_MockDocker_DockerStopContainer16___stop_containerNtB7_12Expectations4call0Bh_
FN:79,_RNCNvMsa_NtNtNtNtNtCscJhqz4rleTI_11atlas_local6client17delete_deployment5tests37___mock_MockDocker_DockerStopContainer16___stop_containerNtB7_12Expectations4calls_0Bh_
FN:121,_RNCNCNvNtNtNtCscJhqz4rleTI_11atlas_local6client17delete_deployment5testss_22test_delete_deployment00Bb_
FN:139,_RNCNCNvNtNtNtCscJhqz4rleTI_11atlas_local6client17delete_deployment5testss_22test_delete_deployment0s0_0Bb_
FN:130,_RNCNCNvNtNtNtCscJhqz4rleTI_11atlas_local6client17delete_deployment5testss_22test_delete_deployment0s_0Bb_
FN:159,_RNCNCNvNtNtNtCscJhqz4rleTI_11atlas_local6client17delete_deployment5testss_43test_delete_deployment_get_deployment_error00Bb_
FN:188,_RNCNCNvNtNtNtCscJhqz4rleTI_11atlas_local6client17delete_deployment5testss_43test_delete_deployment_stop_container_error00Bb_
FN:193,_RNCNCNvNtNtNtCscJhqz4rleTI_11atlas_local6client17delete_deployment5testss_43test_delete_deployment_stop_container_error0s_0Bb_
FN:222,_RNCNCNvNtNtNtCscJhqz4rleTI_11atlas_local6client17delete_deployment5testss_45test_delete_deployment_remove_container_error00Bb_
FN:232,_RNCNCNvNtNtNtCscJhqz4rleTI_11atlas_local6client17delete_deployment5testss_45test_delete_deployment_remove_container_error0s0_0Bb_
FN:227,_RNCNCNvNtNtNtCscJhqz4rleTI_11atlas_local6client17delete_deployment5testss_45test_delete_deployment_remove_container_error0s_0Bb_
FN:109,_RNCNvNtNtNtCscJhqz4rleTI_11atlas_local6client17delete_deployment5testss_22test_delete_deployment0B9_
FN:151,_RNCNvNtNtNtCscJhqz4rleTI_11atlas_local6client17delete_deployment5testss_43test_delete_deployment_get_deployment_error0B9_
FN:180,_RNCNvNtNtNtCscJhqz4rleTI_11atlas_local6client17delete_deployment5testss_43test_delete_deployment_stop_container_error0B9_
FN:214,_RNCNvNtNtNtCscJhqz4rleTI_11atlas_local6client17delete_deployment5testss_45test_delete_deployment_remove_container_error0B9_
FN:58,_RNCNvXs6_NtNtNtCscJhqz4rleTI_11atlas_local6client17delete_deployment5testsNtB7_10MockDockerNtNtBd_6docker19DockerStopContainer14stop_container0Bd_
FN:66,_RNCNvXs8_NtNtNtCscJhqz4rleTI_11atlas_local6client17delete_deployment5testsNtB7_10MockDockerNtNtBd_6docker21DockerRemoveContainer16remove_container0Bd_
FN:74,_RNCNvXsa_NtNtNtCscJhqz4rleTI_11atlas_local6client17delete_deployment5testsNtB7_10MockDockerNtNtBd_6docker22DockerInspectContainer17inspect_container0Bd_
FN:79,_RNvMNtNtNtNtNtCscJhqz4rleTI_11atlas_local6client17delete_deployment5tests37___mock_MockDocker_DockerStopContainer16___stop_containerNtB2_5Rfunc8call_mut
FN:79,_RNvMs0_NtNtNtNtNtCscJhqz4rleTI_11atlas_local6client17delete_deployment5tests37___mock_MockDocker_DockerStopContainer16___stop_containerNtB5_7Matcher7matches
FN:79,_RNvMs4_NtNtNtNtNtCscJhqz4rleTI_11atlas_local6client17delete_deployment5tests37___mock_MockDocker_DockerStopContainer16___stop_containerNtB5_6Common15verify_sequence
FN:79,_RNvMs4_NtNtNtNtNtCscJhqz4rleTI_11atlas_local6client17delete_deployment5tests37___mock_MockDocker_DockerStopContainer16___stop_containerNtB5_6Common16satisfy_sequence
FN:79,_RNvMs4_NtNtNtNtNtCscJhqz4rleTI_11atlas_local6client17delete_deployment5tests37___mock_MockDocker_DockerStopContainer16___stop_containerNtB5_6Common4call
FN:79,_RNvMs4_NtNtNtNtNtCscJhqz4rleTI_11atlas_local6client17delete_deployment5tests37___mock_MockDocker_DockerStopContainer16___stop_containerNtB5_6Common7is_done
FN:79,_RNvMs4_NtNtNtNtNtCscJhqz4rleTI_11atlas_local6client17delete_deployment5tests37___mock_MockDocker_DockerStopContainer16___stop_containerNtB5_6Common7matches
FN:79,_RNvMs6_NtNtNtNtNtCscJhqz4rleTI_11atlas_local6client17delete_deployment5tests37___mock_MockDocker_DockerStopContainer16___stop_containerNtB5_11Expectation4call
FN:79,_RNvMs6_NtNtNtNtNtCscJhqz4rleTI_11atlas_local6client17delete_deployment5tests37___mock_MockDocker_DockerStopContainer16___stop_containerNtB5_11Expectation7is_done
FN:79,_RNvMs6_NtNtNtNtNtCscJhqz4rleTI_11atlas_local6client17delete_deployment5tests37___mock_MockDocker_DockerStopContainer16___stop_containerNtB5_11Expectation7matches
FN:79,_RNvMs8_NtNtNtNtNtCscJhqz4rleTI_11atlas_local6client17delete_deployment5tests37___mock_MockDocker_DockerStopContainer16___stop_containerNtB5_12Expectations3new
FN:79,_RNvMs8_NtNtNtNtNtCscJhqz4rleTI_11atlas_local6client17delete_deployment5tests37___mock_MockDocker_DockerStopContainer16___stop_containerNtB5_12Expectations6expect
FN:79,_RNvMsa_NtNtNtNtNtCscJhqz4rleTI_11atlas_local6client17delete_deployment5tests37___mock_MockDocker_DockerStopContainer16___stop_containerNtB5_12Expectations4call
FN:79,_RNvXs1_NtNtNtNtNtCscJhqz4rleTI_11atlas_local6client17delete_deployment5tests37___mock_MockDocker_DockerStopContainer16___stop_containerNtB5_7MatcherNtNtCsaNl6UpbT7bw_4core7default7Default7default
FN:79,_RNvXs2_NtNtNtNtNtCscJhqz4rleTI_11atlas_local6client17delete_deployment5tests37___mock_MockDocker_DockerStopContainer16___stop_containerNtB5_7MatcherNtNtCsaNl6UpbT7bw_4core3fmt7Display3fmt
FN:79,_RNvXs3_NtNtNtNtNtCscJhqz4rleTI_11atlas_local6client17delete_deployment5tests37___mock_MockDocker_DockerStopContainer16___stop_containerNtB5_6CommonNtNtCsaNl6UpbT7bw_4core7default7Default7default
FN:79,_RNvXs7_NtNtNtNtNtCscJhqz4rleTI_11atlas_local6client17delete_deployment5tests37___mock_MockDocker_DockerStopContainer16___stop_containerNtB5_11ExpectationNtNtCsaNl6UpbT7bw_4core7default7Default7default
FN:79,_RNvXs9_NtNtNtNtNtCscJhqz4rleTI_11atlas_local6client17delete_deployment5tests37___mock_MockDocker_DockerStopContainer16___stop_containerNtB5_12ExpectationsNtNtCsaNl6UpbT7bw_4core7default7Default7default
FN:79,_RNvXs_NtNtNtNtNtCscJhqz4rleTI_11atlas_local6client17delete_deployment5tests37___mock_MockDocker_DockerStopContainer16___stop_containerNtB4_5RfuncNtNtCsaNl6UpbT7bw_4core7default7Default7default
FNDA:2,_RNvMNtNtNtNtNtCscJhqz4rleTI_11atlas_local6client17delete_deployment5tests39___mock_MockDocker_DockerRemoveContainer18___remove_containerNtB2_5Rfunc8call_mut
FNDA:2,_RNvMs0_NtNtNtNtNtCscJhqz4rleTI_11atlas_local6client17delete_deployment5tests39___mock_MockDocker_DockerRemoveContainer18___remove_containerNtB5_7Matcher7matches
FNDA:2,_RNvMs4_NtNtNtNtNtCscJhqz4rleTI_11atlas_local6client17delete_deployment5tests39___mock_MockDocker_DockerRemoveContainer18___remove_containerNtB5_6Common15verify_sequence
FNDA:2,_RNvMs4_NtNtNtNtNtCscJhqz4rleTI_11atlas_local6client17delete_deployment5tests39___mock_MockDocker_DockerRemoveContainer18___remove_containerNtB5_6Common16satisfy_sequence
FNDA:2,_RNvMs4_NtNtNtNtNtCscJhqz4rleTI_11atlas_local6client17delete_deployment5tests39___mock_MockDocker_DockerRemoveContainer18___remove_containerNtB5_6Common4call
FNDA:2,_RNvMs4_NtNtNtNtNtCscJhqz4rleTI_11atlas_local6client17delete_deployment5tests39___mock_MockDocker_DockerRemoveContainer18___remove_containerNtB5_6Common7is_done
FNDA:2,_RNvMs4_NtNtNtNtNtCscJhqz4rleTI_11atlas_local6client17delete_deployment5tests39___mock_MockDocker_DockerRemoveContainer18___remove_containerNtB5_6Common7matches
FNDA:2,_RNvMs6_NtNtNtNtNtCscJhqz4rleTI_11atlas_local6client17delete_deployment5tests39___mock_MockDocker_DockerRemoveContainer18___remove_containerNtB5_11Expectation4call
FNDA:2,_RNvMs6_NtNtNtNtNtCscJhqz4rleTI_11atlas_local6client17delete_deployment5tests39___mock_MockDocker_DockerRemoveContainer18___remove_containerNtB5_11Expectation7is_done
FNDA:2,_RNvMs6_NtNtNtNtNtCscJhqz4rleTI_11atlas_local6client17delete_deployment5tests39___mock_MockDocker_DockerRemoveContainer18___remove_containerNtB5_11Expectation7matches
FNDA:4,_RNvMs8_NtNtNtNtNtCscJhqz4rleTI_11atlas_local6client17delete_deployment5tests39___mock_MockDocker_DockerRemoveContainer18___remove_containerNtB5_12Expectations3new
FNDA:2,_RNvMs8_NtNtNtNtNtCscJhqz4rleTI_11atlas_local6client17delete_deployment5tests39___mock_MockDocker_DockerRemoveContainer18___remove_containerNtB5_12Expectations6expect
FNDA:2,_RNvMsa_NtNtNtNtNtCscJhqz4rleTI_11atlas_local6client17delete_deployment5tests39___mock_MockDocker_DockerRemoveContainer18___remove_containerNtB5_12Expectations4call
FNDA:2,_RNvXs1_NtNtNtNtNtCscJhqz4rleTI_11atlas_local6client17delete_deployment5tests39___mock_MockDocker_DockerRemoveContainer18___remove_containerNtB5_7MatcherNtNtCsaNl6UpbT7bw_4core7default7Default7default
FNDA:2,_RNvXs2_NtNtNtNtNtCscJhqz4rleTI_11atlas_local6client17delete_deployment5tests39___mock_MockDocker_DockerRemoveContainer18___remove_containerNtB5_7MatcherNtNtCsaNl6UpbT7bw_4core3fmt7Display3fmt
FNDA:2,_RNvXs3_NtNtNtNtNtCscJhqz4rleTI_11atlas_local6client17delete_deployment5tests39___mock_MockDocker_DockerRemoveContainer18___remove_containerNtB5_6CommonNtNtCsaNl6UpbT7bw_4core7default7Default7default
FNDA:2,_RNvXs7_NtNtNtNtNtCscJhqz4rleTI_11atlas_local6client17delete_deployment5tests39___mock_MockDocker_DockerRemoveContainer18___remove_containerNtB5_11ExpectationNtNtCsaNl6UpbT7bw_4core7default7Default7default
FNDA:4,_RNvXs9_NtNtNtNtNtCscJhqz4rleTI_11atlas_local6client17delete_deployment5tests39___mock_MockDocker_DockerRemoveContainer18___remove_containerNtB5_12ExpectationsNtNtCsaNl6UpbT7bw_4core7default7Default7default
FNDA:2,_RNvXs_NtNtNtNtNtCscJhqz4rleTI_11atlas_local6client17delete_deployment5tests39___mock_MockDocker_DockerRemoveContainer18___remove_containerNtB4_5RfuncNtNtCsaNl6UpbT7bw_4core7default7Default7default
FNDA:4,_RNvMs5_NtNtNtCscJhqz4rleTI_11atlas_local6client17delete_deployment5testsNtB5_10MockDocker3new
FNDA:3,_RNvMs7_NtNtNtCscJhqz4rleTI_11atlas_local6client17delete_deployment5testsNtB5_10MockDocker21expect_stop_container
FNDA:2,_RNvMs9_NtNtNtCscJhqz4rleTI_11atlas_local6client17delete_deployment5testsNtB5_10MockDocker23expect_remove_container
FNDA:4,_RNvMsb_NtNtNtCscJhqz4rleTI_11atlas_local6client17delete_deployment5testsNtB5_10MockDocker24expect_inspect_container
FNDA:3,_RNvNtNtNtCscJhqz4rleTI_11atlas_local6client17delete_deployment5tests38create_test_container_inspect_response
FNDA:1,_RNvNtNtNtCscJhqz4rleTI_11atlas_local6client17delete_deployment5testss_22test_delete_deployment
FNDA:1,_RNvNtNtNtCscJhqz4rleTI_11atlas_local6client17delete_deployment5testss_43test_delete_deployment_get_deployment_error
FNDA:1,_RNvNtNtNtCscJhqz4rleTI_11atlas_local6client17delete_deployment5testss_43test_delete_deployment_stop_container_error
FNDA:1,_RNvNtNtNtCscJhqz4rleTI_11atlas_local6client17delete_deployment5testss_45test_delete_deployment_remove_container_error
FNDA:4,_RNvXNtNtNtCscJhqz4rleTI_11atlas_local6client17delete_deployment5testsNtB2_10MockDockerNtNtCsaNl6UpbT7bw_4core7default7Default7default
FNDA:4,_RNvXs1_NtNtNtCscJhqz4rleTI_11atlas_local6client17delete_deployment5testsNtB5_32MockDocker_DockerRemoveContainerNtNtCsaNl6UpbT7bw_4core7default7Default7default
FNDA:4,_RNvXs3_NtNtNtCscJhqz4rleTI_11atlas_local6client17delete_deployment5testsNtB5_33MockDocker_DockerInspectContainerNtNtCsaNl6UpbT7bw_4core7default7Default7default
FNDA:4,_RNvXs_NtNtNtCscJhqz4rleTI_11atlas_local6client17delete_deployment5testsNtB4_30MockDocker_DockerStopContainerNtNtCsaNl6UpbT7bw_4core7default7Default7default
FNDA:4,_RNvMNtNtCscJhqz4rleTI_11atlas_local6client17delete_deploymentINtB4_6ClientNtNtB2_5tests10MockDockerE17delete_deploymentB6_
FNDA:4,_RNCNvMNtNtCscJhqz4rleTI_11atlas_local6client17delete_deploymentINtB6_6ClientNtNtB4_5tests10MockDockerE17delete_deployment0B8_
FNDA:1,_RINvMs4_NtNtNtNtNtCscJhqz4rleTI_11atlas_local6client17delete_deployment5tests40___mock_MockDocker_DockerInspectContainer19___inspect_containerNtB6_6Common4withINtNtCsaS4gknD0Sqc_10predicates3ord11EqPredicateReEIB2y_INtNtCsaNl6UpbT7bw_4core6option6OptionNtNtCsiAmkw3NBFjt_13bollard_stubs16query_parameters23InspectContainerOptionsEEEBg_
FNDA:4,_RINvMs4_NtNtNtNtNtCscJhqz4rleTI_11atlas_local6client17delete_deployment5tests40___mock_MockDocker_DockerInspectContainer19___inspect_containerNtB6_6Common5timesjEBg_
FNDA:1,_RINvMs6_NtNtNtNtNtCscJhqz4rleTI_11atlas_local6client17delete_deployment5tests40___mock_MockDocker_DockerInspectContainer19___inspect_containerNtB6_11Expectation4withINtNtCsaS4gknD0Sqc_10predicates3ord11EqPredicateReEIB2E_INtNtCsaNl6UpbT7bw_4core6option6OptionNtNtCsiAmkw3NBFjt_13bollard_stubs16query_parameters23InspectContainerOptionsEEEBg_
FNDA:4,_RINvMs6_NtNtNtNtNtCscJhqz4rleTI_11atlas_local6client17delete_deployment5tests40___mock_MockDocker_DockerInspectContainer19___inspect_containerNtB6_11Expectation5timesjEBg_
FNDA:1,_RINvMs6_NtNtNtNtNtCscJhqz4rleTI_11atlas_local6client17delete_deployment5tests40___mock_MockDocker_DockerInspectContainer19___inspect_containerNtB6_11Expectation9returningNCNCNvBa_s_22test_delete_deployment00EBg_
FNDA:1,_RINvMs6_NtNtNtNtNtCscJhqz4rleTI_11atlas_local6client17delete_deployment5tests40___mock_MockDocker_DockerInspectContainer19___inspect_containerNtB6_11Expectation9returningNCNCNvBa_s_43test_delete_deployment_get_deployment_error00EBg_
FNDA:1,_RINvMs6_NtNtNtNtNtCscJhqz4rleTI_11atlas_local6client17delete_deployment5tests40___mock_MockDocker_DockerInspectContainer19___inspect_containerNtB6_11Expectation9returningNCNCNvBa_s_43test_delete_deployment_stop_container_error00EBg_
FNDA:1,_RINvMs6_NtNtNtNtNtCscJhqz4rleTI_11atlas_local6client17delete_deployment5tests40___mock_MockDocker_DockerInspectContainer19___inspect_containerNtB6_11Expectation9returningNCNCNvBa_s_45test_delete_deployment_remove_container_error00EBg_
FNDA:2,_RNCNvMs0_NtNtNtNtNtCscJhqz4rleTI_11atlas_local6client17delete_deployment5tests40___mock_MockDocker_DockerInspectContainer19___inspect_containerNtB7_7Matcher7matches0Bh_
FNDA:4,_RNCNvMsa_NtNtNtNtNtCscJhqz4rleTI_11atlas_local6client17delete_deployment5tests40___mock_MockDocker_DockerInspectContainer19___inspect_containerNtB7_12Expectations4call0Bh_
FNDA:4,_RNCNvMsa_NtNtNtNtNtCscJhqz4rleTI_11atlas_local6client17delete_deployment5tests40___mock_MockDocker_DockerInspectContainer19___inspect_containerNtB7_12Expectations4calls_0Bh_
FNDA:4,_RNvMNtNtNtNtNtCscJhqz4rleTI_11atlas_local6client17delete_deployment5tests40___mock_MockDocker_DockerInspectContainer19___inspect_containerNtB2_5Rfunc8call_mut
FNDA:4,_RNvMs0_NtNtNtNtNtCscJhqz4rleTI_11atlas_local6client17delete_deployment5tests40___mock_MockDocker_DockerInspectContainer19___inspect_containerNtB5_7Matcher7matches
FNDA:4,_RNvMs4_NtNtNtNtNtCscJhqz4rleTI_11atlas_local6client17delete_deployment5tests40___mock_MockDocker_DockerInspectContainer19___inspect_containerNtB5_6Common15verify_sequence
FNDA:4,_RNvMs4_NtNtNtNtNtCscJhqz4rleTI_11atlas_local6client17delete_deployment5tests40___mock_MockDocker_DockerInspectContainer19___inspect_containerNtB5_6Common16satisfy_sequence
FNDA:4,_RNvMs4_NtNtNtNtNtCscJhqz4rleTI_11atlas_local6client17delete_deployment5tests40___mock_MockDocker_DockerInspectContainer19___inspect_containerNtB5_6Common4call
FNDA:4,_RNvMs4_NtNtNtNtNtCscJhqz4rleTI_11atlas_local6client17delete_deployment5tests40___mock_MockDocker_DockerInspectContainer19___inspect_containerNtB5_6Common7is_done
FNDA:4,_RNvMs4_NtNtNtNtNtCscJhqz4rleTI_11atlas_local6client17delete_deployment5tests40___mock_MockDocker_DockerInspectContainer19___inspect_containerNtB5_6Common7matches
FNDA:4,_RNvMs6_NtNtNtNtNtCscJhqz4rleTI_11atlas_local6client17delete_deployment5tests40___mock_MockDocker_DockerInspectContainer19___inspect_containerNtB5_11Expectation4call
FNDA:4,_RNvMs6_NtNtNtNtNtCscJhqz4rleTI_11atlas_local6client17delete_deployment5tests40___mock_MockDocker_DockerInspectContainer19___inspect_containerNtB5_11Expectation7is_done
FNDA:4,_RNvMs6_NtNtNtNtNtCscJhqz4rleTI_11atlas_local6client17delete_deployment5tests40___mock_MockDocker_DockerInspectContainer19___inspect_containerNtB5_11Expectation7matches
FNDA:4,_RNvMs8_NtNtNtNtNtCscJhqz4rleTI_11atlas_local6client17delete_deployment5tests40___mock_MockDocker_DockerInspectContainer19___inspect_containerNtB5_12Expectations3new
FNDA:4,_RNvMs8_NtNtNtNtNtCscJhqz4rleTI_11atlas_local6client17delete_deployment5tests40___mock_MockDocker_DockerInspectContainer19___inspect_containerNtB5_12Expectations6expect
FNDA:4,_RNvMsa_NtNtNtNtNtCscJhqz4rleTI_11atlas_local6client17delete_deployment5tests40___mock_MockDocker_DockerInspectContainer19___inspect_containerNtB5_12Expectations4call
FNDA:4,_RNvXs1_NtNtNtNtNtCscJhqz4rleTI_11atlas_local6client17delete_deployment5tests40___mock_MockDocker_DockerInspectContainer19___inspect_containerNtB5_7MatcherNtNtCsaNl6UpbT7bw_4core7default7Default7default
FNDA:4,_RNvXs2_NtNtNtNtNtCscJhqz4rleTI_11atlas_local6client17delete_deployment5tests40___mock_MockDocker_DockerInspectContainer19___inspect_containerNtB5_7MatcherNtNtCsaNl6UpbT7bw_4core3fmt7Display3fmt
FNDA:4,_RNvXs3_NtNtNtNtNtCscJhqz4rleTI_11atlas_local6client17delete_deployment5tests40___mock_MockDocker_DockerInspectContainer19___inspect_containerNtB5_6CommonNtNtCsaNl6UpbT7bw_4core7default7Default7default
FNDA:4,_RNvXs7_NtNtNtNtNtCscJhqz4rleTI_11atlas_local6client17delete_deployment5tests40___mock_MockDocker_DockerInspectContainer19___inspect_containerNtB5_11ExpectationNtNtCsaNl6UpbT7bw_4core7default7Default7default
FNDA:4,_RNvXs9_NtNtNtNtNtCscJhqz4rleTI_11atlas_local6client17delete_deployment5tests40___mock_MockDocker_DockerInspectContainer19___inspect_containerNtB5_12ExpectationsNtNtCsaNl6UpbT7bw_4core7default7Default7default
FNDA:4,_RNvXs_NtNtNtNtNtCscJhqz4rleTI_11atlas_local6client17delete_deployment5tests40___mock_MockDocker_DockerInspectContainer19___inspect_containerNtB4_5RfuncNtNtCsaNl6UpbT7bw_4core7default7Default7default
FNDA:3,_RNvXs5_NtNtNtNtNtCscJhqz4rleTI_11atlas_local6client17delete_deployment5tests37___mock_MockDocker_DockerStopContainer16___stop_containerNtB5_6CommonNtNtNtCsaNl6UpbT7bw_4core3ops4drop4Drop4drop
FNDA:2,_RNvXs5_NtNtNtNtNtCscJhqz4rleTI_11atlas_local6client17delete_deployment5tests39___mock_MockDocker_DockerRemoveContainer18___remove_containerNtB5_6CommonNtNtNtCsaNl6UpbT7bw_4core3ops4drop4Drop4drop
FNDA:4,_RNvXs5_NtNtNtNtNtCscJhqz4rleTI_11atlas_local6client17delete_deployment5tests40___mock_MockDocker_DockerInspectContainer19___inspect_containerNtB5_6CommonNtNtNtCsaNl6UpbT7bw_4core3ops4drop4Drop4drop
FNDA:0,_RINvMs4_NtNtNtNtNtCscJhqz4rleTI_11atlas_local6client17delete_deployment5tests37___mock_MockDocker_DockerStopContainer16___stop_containerNtB6_6Common5withfpEBg_
FNDA:0,_RINvMs4_NtNtNtNtNtCscJhqz4rleTI_11atlas_local6client17delete_deployment5tests37___mock_MockDocker_DockerStopContainer16___stop_containerNtB6_6Common8withf_stpEBg_
FNDA:0,_RINvMs4_NtNtNtNtNtCscJhqz4rleTI_11atlas_local6client17delete_deployment5tests39___mock_MockDocker_DockerRemoveContainer18___remove_containerNtB6_6Common5withfpEBg_
FNDA:0,_RINvMs4_NtNtNtNtNtCscJhqz4rleTI_11atlas_local6client17delete_deployment5tests39___mock_MockDocker_DockerRemoveContainer18___remove_containerNtB6_6Common8withf_stpEBg_
FNDA:0,_RINvMs4_NtNtNtNtNtCscJhqz4rleTI_11atlas_local6client17delete_deployment5tests40___mock_MockDocker_DockerInspectContainer19___inspect_containerNtB6_6Common5withfpEBg_
FNDA:0,_RINvMs4_NtNtNtNtNtCscJhqz4rleTI_11atlas_local6client17delete_deployment5tests40___mock_MockDocker_DockerInspectContainer19___inspect_containerNtB6_6Common8withf_stpEBg_
FNDA:0,_RINvMs6_NtNtNtNtNtCscJhqz4rleTI_11atlas_local6client17delete_deployment5tests37___mock_MockDocker_DockerStopContainer16___stop_containerNtB6_11Expectation11return_oncepEBg_
FNDA:0,_RINvMs6_NtNtNtNtNtCscJhqz4rleTI_11atlas_local6client17delete_deployment5tests37___mock_MockDocker_DockerStopContainer16___stop_containerNtB6_11Expectation12return_constpEBg_
FNDA:0,_RINvMs6_NtNtNtNtNtCscJhqz4rleTI_11atlas_local6client17delete_deployment5tests37___mock_MockDocker_DockerStopContainer16___stop_containerNtB6_11Expectation12returning_stpEBg_
FNDA:0,_RINvMs6_NtNtNtNtNtCscJhqz4rleTI_11atlas_local6client17delete_deployment5tests37___mock_MockDocker_DockerStopContainer16___stop_containerNtB6_11Expectation14return_once_stpEBg_
FNDA:0,_RINvMs6_NtNtNtNtNtCscJhqz4rleTI_11atlas_local6client17delete_deployment5tests37___mock_MockDocker_DockerStopContainer16___stop_containerNtB6_11Expectation15return_const_stpEBg_
FNDA:0,_RINvMs6_NtNtNtNtNtCscJhqz4rleTI_11atlas_local6client17delete_deployment5tests37___mock_MockDocker_DockerStopContainer16___stop_containerNtB6_11Expectation5withfpEBg_
FNDA:0,_RINvMs6_NtNtNtNtNtCscJhqz4rleTI_11atlas_local6client17delete_deployment5tests37___mock_MockDocker_DockerStopContainer16___stop_containerNtB6_11Expectation8withf_stpEBg_
FNDA:0,_RINvMs6_NtNtNtNtNtCscJhqz4rleTI_11atlas_local6client17delete_deployment5tests39___mock_MockDocker_DockerRemoveContainer18___remove_containerNtB6_11Expectation11return_oncepEBg_
FNDA:0,_RINvMs6_NtNtNtNtNtCscJhqz4rleTI_11atlas_local6client17delete_deployment5tests39___mock_MockDocker_DockerRemoveContainer18___remove_containerNtB6_11Expectation12return_constpEBg_
FNDA:0,_RINvMs6_NtNtNtNtNtCscJhqz4rleTI_11atlas_local6client17delete_deployment5tests39___mock_MockDocker_DockerRemoveContainer18___remove_containerNtB6_11Expectation12returning_stpEBg_
FNDA:0,_RINvMs6_NtNtNtNtNtCscJhqz4rleTI_11atlas_local6client17delete_deployment5tests39___mock_MockDocker_DockerRemoveContainer18___remove_containerNtB6_11Expectation14return_once_stpEBg_
FNDA:0,_RINvMs6_NtNtNtNtNtCscJhqz4rleTI_11atlas_local6client17delete_deployment5tests39___mock_MockDocker_DockerRemoveContainer18___remove_containerNtB6_11Expectation15return_const_stpEBg_
FNDA:0,_RINvMs6_NtNtNtNtNtCscJhqz4rleTI_11atlas_local6client17delete_deployment5tests39___mock_MockDocker_DockerRemoveContainer18___remove_containerNtB6_11Expectation5withfpEBg_
FNDA:0,_RINvMs6_NtNtNtNtNtCscJhqz4rleTI_11atlas_local6client17delete_deployment5tests39___mock_MockDocker_DockerRemoveContainer18___remove_containerNtB6_11Expectation8withf_stpEBg_
FNDA:0,_RINvMs6_NtNtNtNtNtCscJhqz4rleTI_11atlas_local6client17delete_deployment5tests40___mock_MockDocker_DockerInspectContainer19___inspect_containerNtB6_11Expectation11return_oncepEBg_
FNDA:0,_RINvMs6_NtNtNtNtNtCscJhqz4rleTI_11atlas_local6client17delete_deployment5tests40___mock_MockDocker_DockerInspectContainer19___inspect_containerNtB6_11Expectation12return_constpEBg_
FNDA:0,_RINvMs6_NtNtNtNtNtCscJhqz4rleTI_11atlas_local6client17delete_deployment5tests40___mock_MockDocker_DockerInspectContainer19___inspect_containerNtB6_11Expectation12returning_stpEBg_
FNDA:0,_RINvMs6_NtNtNtNtNtCscJhqz4rleTI_11atlas_local6client17delete_deployment5tests40___mock_MockDocker_DockerInspectContainer19___inspect_containerNtB6_11Expectation14return_once_stpEBg_
FNDA:0,_RINvMs6_NtNtNtNtNtCscJhqz4rleTI_11atlas_local6client17delete_deployment5tests40___mock_MockDocker_DockerInspectContainer19___inspect_containerNtB6_11Expectation15return_const_stpEBg_
FNDA:0,_RINvMs6_NtNtNtNtNtCscJhqz4rleTI_11atlas_local6client17delete_deployment5tests40___mock_MockDocker_DockerInspectContainer19___inspect_containerNtB6_11Expectation5withfpEBg_
FNDA:0,_RINvMs6_NtNtNtNtNtCscJhqz4rleTI_11atlas_local6client17delete_deployment5tests40___mock_MockDocker_DockerInspectContainer19___inspect_containerNtB6_11Expectation8withf_stpEBg_
FNDA:0,_RNCINvMs6_NtNtNtNtNtCscJhqz4rleTI_11atlas_local6client17delete_deployment5tests37___mock_MockDocker_DockerStopContainer16___stop_containerNtB8_11Expectation12return_constpE0Bi_
FNDA:0,_RNCINvMs6_NtNtNtNtNtCscJhqz4rleTI_11atlas_local6client17delete_deployment5tests37___mock_MockDocker_DockerStopContainer16___stop_containerNtB8_11Expectation15return_const_stpE0Bi_
FNDA:0,_RNCINvMs6_NtNtNtNtNtCscJhqz4rleTI_11atlas_local6client17delete_deployment5tests39___mock_MockDocker_DockerRemoveContainer18___remove_containerNtB8_11Expectation12return_constpE0Bi_
FNDA:0,_RNCINvMs6_NtNtNtNtNtCscJhqz4rleTI_11atlas_local6client17delete_deployment5tests39___mock_MockDocker_DockerRemoveContainer18___remove_containerNtB8_11Expectation15return_const_stpE0Bi_
FNDA:0,_RNCINvMs6_NtNtNtNtNtCscJhqz4rleTI_11atlas_local6client17delete_deployment5tests40___mock_MockDocker_DockerInspectContainer19___inspect_containerNtB8_11Expectation12return_constpE0Bi_
FNDA:0,_RNCINvMs6_NtNtNtNtNtCscJhqz4rleTI_11atlas_local6client17delete_deployment5tests40___mock_MockDocker_DockerInspectContainer19___inspect_containerNtB8_11Expectation15return_const_stpE0Bi_
FNDA:0,_RNvMs0_NtNtNtCscJhqz4rleTI_11atlas_local6client17delete_deployment5testsNtB5_30MockDocker_DockerStopContainer10checkpoint
FNDA:0,_RNvMs2_NtNtNtCscJhqz4rleTI_11atlas_local6client17delete_deployment5testsNtB5_32MockDocker_DockerRemoveContainer10checkpoint
FNDA:0,_RNvMs4_NtNtNtCscJhqz4rleTI_11atlas_local6client17delete_deployment5testsNtB5_33MockDocker_DockerInspectContainer10checkpoint
FNDA:0,_RNvMs4_NtNtNtNtNtCscJhqz4rleTI_11atlas_local6client17delete_deployment5tests37___mock_MockDocker_DockerStopContainer16___stop_containerNtB5_6Common11in_sequence
FNDA:0,_RNvMs4_NtNtNtNtNtCscJhqz4rleTI_11atlas_local6client17delete_deployment5tests37___mock_MockDocker_DockerStopContainer16___stop_containerNtB5_6Common5never
FNDA:0,_RNvMs4_NtNtNtNtNtCscJhqz4rleTI_11atlas_local6client17delete_deployment5tests39___mock_MockDocker_DockerRemoveContainer18___remove_containerNtB5_6Common11in_sequence
FNDA:0,_RNvMs4_NtNtNtNtNtCscJhqz4rleTI_11atlas_local6client17delete_deployment5tests39___mock_MockDocker_DockerRemoveContainer18___remove_containerNtB5_6Common5never
FNDA:0,_RNvMs4_NtNtNtNtNtCscJhqz4rleTI_11atlas_local6client17delete_deployment5tests40___mock_MockDocker_DockerInspectContainer19___inspect_containerNtB5_6Common11in_sequence
FNDA:0,_RNvMs4_NtNtNtNtNtCscJhqz4rleTI_11atlas_local6client17delete_deployment5tests40___mock_MockDocker_DockerInspectContainer19___inspect_containerNtB5_6Common5never
FNDA:0,_RNvMs5_NtNtNtCscJhqz4rleTI_11atlas_local6client17delete_deployment5testsNtB5_10MockDocker10checkpoint
FNDA:0,_RNvMs6_NtNtNtNtNtCscJhqz4rleTI_11atlas_local6client17delete_deployment5tests37___mock_MockDocker_DockerStopContainer16___stop_containerNtB5_11Expectation11in_sequence
FNDA:0,_RNvMs6_NtNtNtNtNtCscJhqz4rleTI_11atlas_local6client17delete_deployment5tests37___mock_MockDocker_DockerStopContainer16___stop_containerNtB5_11Expectation3new
FNDA:0,_RNvMs6_NtNtNtNtNtCscJhqz4rleTI_11atlas_local6client17delete_deployment5tests37___mock_MockDocker_DockerStopContainer16___stop_containerNtB5_11Expectation4once
FNDA:0,_RNvMs6_NtNtNtNtNtCscJhqz4rleTI_11atlas_local6client17delete_deployment5tests37___mock_MockDocker_DockerStopContainer16___stop_containerNtB5_11Expectation5never
FNDA:0,_RNvMs6_NtNtNtNtNtCscJhqz4rleTI_11atlas_local6client17delete_deployment5tests39___mock_MockDocker_DockerRemoveContainer18___remove_containerNtB5_11Expectation11in_sequence
FNDA:0,_RNvMs6_NtNtNtNtNtCscJhqz4rleTI_11atlas_local6client17delete_deployment5tests39___mock_MockDocker_DockerRemoveContainer18___remove_containerNtB5_11Expectation3new
FNDA:0,_RNvMs6_NtNtNtNtNtCscJhqz4rleTI_11atlas_local6client17delete_deployment5tests39___mock_MockDocker_DockerRemoveContainer18___remove_containerNtB5_11Expectation4once
FNDA:0,_RNvMs6_NtNtNtNtNtCscJhqz4rleTI_11atlas_local6client17delete_deployment5tests39___mock_MockDocker_DockerRemoveContainer18___remove_containerNtB5_11Expectation5never
FNDA:0,_RNvMs6_NtNtNtNtNtCscJhqz4rleTI_11atlas_local6client17delete_deployment5tests40___mock_MockDocker_DockerInspectContainer19___inspect_containerNtB5_11Expectation11in_sequence
FNDA:0,_RNvMs6_NtNtNtNtNtCscJhqz4rleTI_11atlas_local6client17delete_deployment5tests40___mock_MockDocker_DockerInspectContainer19___inspect_containerNtB5_11Expectation3new
FNDA:0,_RNvMs6_NtNtNtNtNtCscJhqz4rleTI_11atlas_local6client17delete_deployment5tests40___mock_MockDocker_DockerInspectContainer19___inspect_containerNtB5_11Expectation4once
FNDA:0,_RNvMs6_NtNtNtNtNtCscJhqz4rleTI_11atlas_local6client17delete_deployment5tests40___mock_MockDocker_DockerInspectContainer19___inspect_containerNtB5_11Expectation5never
FNDA:0,_RNvMs8_NtNtNtNtNtCscJhqz4rleTI_11atlas_local6client17delete_deployment5tests37___mock_MockDocker_DockerStopContainer16___stop_containerNtB5_12Expectations10checkpoint
FNDA:0,_RNvMs8_NtNtNtNtNtCscJhqz4rleTI_11atlas_local6client17delete_deployment5tests39___mock_MockDocker_DockerRemoveContainer18___remove_containerNtB5_12Expectations10checkpoint
FNDA:0,_RNvMs8_NtNtNtNtNtCscJhqz4rleTI_11atlas_local6client17delete_deployment5tests40___mock_MockDocker_DockerInspectContainer19___inspect_containerNtB5_12Expectations10checkpoint
FNDA:1,_RINvMs4_NtNtNtNtNtCscJhqz4rleTI_11atlas_local6client17delete_deployment5tests39___mock_MockDocker_DockerRemoveContainer18___remove_containerNtB6_6Common4withINtNtCsaS4gknD0Sqc_10predicates3ord11EqPredicateReEIB2w_INtNtCsaNl6UpbT7bw_4core6option6OptionNtNtCsiAmkw3NBFjt_13bollard_stubs16query_parameters22RemoveContainerOptionsEEEBg_
FNDA:2,_RINvMs4_NtNtNtNtNtCscJhqz4rleTI_11atlas_local6client17delete_deployment5tests39___mock_MockDocker_DockerRemoveContainer18___remove_containerNtB6_6Common5timesjEBg_
FNDA:1,_RINvMs6_NtNtNtNtNtCscJhqz4rleTI_11atlas_local6client17delete_deployment5tests39___mock_MockDocker_DockerRemoveContainer18___remove_containerNtB6_11Expectation4withINtNtCsaS4gknD0Sqc_10predicates3ord11EqPredicateReEIB2C_INtNtCsaNl6UpbT7bw_4core6option6OptionNtNtCsiAmkw3NBFjt_13bollard_stubs16query_parameters22RemoveContainerOptionsEEEBg_
FNDA:2,_RINvMs6_NtNtNtNtNtCscJhqz4rleTI_11atlas_local6client17delete_deployment5tests39___mock_MockDocker_DockerRemoveContainer18___remove_containerNtB6_11Expectation5timesjEBg_
FNDA:1,_RINvMs6_NtNtNtNtNtCscJhqz4rleTI_11atlas_local6client17delete_deployment5tests39___mock_MockDocker_DockerRemoveContainer18___remove_containerNtB6_11Expectation9returningNCNCNvBa_s_22test_delete_deployment0s0_0EBg_
FNDA:1,_RINvMs6_NtNtNtNtNtCscJhqz4rleTI_11atlas_local6client17delete_deployment5tests39___mock_MockDocker_DockerRemoveContainer18___remove_containerNtB6_11Expectation9returningNCNCNvBa_s_45test_delete_deployment_remove_container_error0s0_0EBg_
FNDA:2,_RNCNvMs0_NtNtNtNtNtCscJhqz4rleTI_11atlas_local6client17delete_deployment5tests39___mock_MockDocker_DockerRemoveContainer18___remove_containerNtB7_7Matcher7matches0Bh_
FNDA:2,_RNCNvMsa_NtNtNtNtNtCscJhqz4rleTI_11atlas_local6client17delete_deployment5tests39___mock_MockDocker_DockerRemoveContainer18___remove_containerNtB7_12Expectations4call0Bh_
FNDA:2,_RNCNvMsa_NtNtNtNtNtCscJhqz4rleTI_11atlas_local6client17delete_deployment5tests39___mock_MockDocker_DockerRemoveContainer18___remove_containerNtB7_12Expectations4calls_0Bh_
FNDA:1,_RINvMs4_NtNtNtNtNtCscJhqz4rleTI_11atlas_local6client17delete_deployment5tests37___mock_MockDocker_DockerStopContainer16___stop_containerNtB6_6Common4withINtNtCsaS4gknD0Sqc_10predicates3ord11EqPredicateReEIB2s_INtNtCsaNl6UpbT7bw_4core6option6OptionNtNtCsiAmkw3NBFjt_13bollard_stubs16query_parameters20StopContainerOptionsEEEBg_
FNDA:3,_RINvMs4_NtNtNtNtNtCscJhqz4rleTI_11atlas_local6client17delete_deployment5tests37___mock_MockDocker_DockerStopContainer16___stop_containerNtB6_6Common5timesjEBg_
FNDA:1,_RINvMs6_NtNtNtNtNtCscJhqz4rleTI_11atlas_local6client17delete_deployment5tests37___mock_MockDocker_DockerStopContainer16___stop_containerNtB6_11Expectation4withINtNtCsaS4gknD0Sqc_10predicates3ord11EqPredicateReEIB2y_INtNtCsaNl6UpbT7bw_4core6option6OptionNtNtCsiAmkw3NBFjt_13bollard_stubs16query_parameters20StopContainerOptionsEEEBg_
FNDA:3,_RINvMs6_NtNtNtNtNtCscJhqz4rleTI_11atlas_local6client17delete_deployment5tests37___mock_MockDocker_DockerStopContainer16___stop_containerNtB6_11Expectation5timesjEBg_
FNDA:1,_RINvMs6_NtNtNtNtNtCscJhqz4rleTI_11atlas_local6client17delete_deployment5tests37___mock_MockDocker_DockerStopContainer16___stop_containerNtB6_11Expectation9returningNCNCNvBa_s_22test_delete_deployment0s_0EBg_
FNDA:1,_RINvMs6_NtNtNtNtNtCscJhqz4rleTI_11atlas_local6client17delete_deployment5tests37___mock_MockDocker_DockerStopContainer16___stop_containerNtB6_11Expectation9returningNCNCNvBa_s_43test_delete_deployment_stop_container_error0s_0EBg_
FNDA:1,_RINvMs6_NtNtNtNtNtCscJhqz4rleTI_11atlas_local6client17delete_deployment5tests37___mock_MockDocker_DockerStopContainer16___stop_containerNtB6_11Expectation9returningNCNCNvBa_s_45test_delete_deployment_remove_container_error0s_0EBg_
FNDA:2,_RNCNvMs0_NtNtNtNtNtCscJhqz4rleTI_11atlas_local6client17delete_deployment5tests37___mock_MockDocker_DockerStopContainer16___stop_containerNtB7_7Matcher7matches0Bh_
FNDA:3,_RNCNvMsa_NtNtNtNtNtCscJhqz4rleTI_11atlas_local6client17delete_deployment5tests37___mock_MockDocker_DockerStopContainer16___stop_containerNtB7_12Expectations4call0Bh_
FNDA:3,_RNCNvMsa_NtNtNtNtNtCscJhqz4rleTI_11atlas_local6client17delete_deployment5tests37___mock_MockDocker_DockerStopContainer16___stop_containerNtB7_12Expectations4calls_0Bh_
FNDA:1,_RNCNCNvNtNtNtCscJhqz4rleTI_11atlas_local6client17delete_deployment5testss_22test_delete_deployment00Bb_
FNDA:1,_RNCNCNvNtNtNtCscJhqz4rleTI_11atlas_local6client17delete_deployment5testss_22test_delete_deployment0s0_0Bb_
FNDA:1,_RNCNCNvNtNtNtCscJhqz4rleTI_11atlas_local6client17delete_deployment5testss_22test_delete_deployment0s_0Bb_
FNDA:1,_RNCNCNvNtNtNtCscJhqz4rleTI_11atlas_local6client17delete_deployment5testss_43test_delete_deployment_get_deployment_error00Bb_
FNDA:1,_RNCNCNvNtNtNtCscJhqz4rleTI_11atlas_local6client17delete_deployment5testss_43test_delete_deployment_stop_container_error00Bb_
FNDA:1,_RNCNCNvNtNtNtCscJhqz4rleTI_11atlas_local6client17delete_deployment5testss_43test_delete_deployment_stop_container_error0s_0Bb_
FNDA:1,_RNCNCNvNtNtNtCscJhqz4rleTI_11atlas_local6client17delete_deployment5testss_45test_delete_deployment_remove_container_error00Bb_
FNDA:1,_RNCNCNvNtNtNtCscJhqz4rleTI_11atlas_local6client17delete_deployment5testss_45test_delete_deployment_remove_container_error0s0_0Bb_
FNDA:1,_RNCNCNvNtNtNtCscJhqz4rleTI_11atlas_local6client17delete_deployment5testss_45test_delete_deployment_remove_container_error0s_0Bb_
FNDA:1,_RNCNvNtNtNtCscJhqz4rleTI_11atlas_local6client17delete_deployment5testss_22test_delete_deployment0B9_
FNDA:1,_RNCNvNtNtNtCscJhqz4rleTI_11atlas_local6client17delete_deployment5testss_43test_delete_deployment_get_deployment_error0B9_
FNDA:1,_RNCNvNtNtNtCscJhqz4rleTI_11atlas_local6client17delete_deployment5testss_43test_delete_deployment_stop_container_error0B9_
FNDA:1,_RNCNvNtNtNtCscJhqz4rleTI_11atlas_local6client17delete_deployment5testss_45test_delete_deployment_remove_container_error0B9_
FNDA:3,_RNCNvXs6_NtNtNtCscJhqz4rleTI_11atlas_local6client17delete_deployment5testsNtB7_10MockDockerNtNtBd_6docker19DockerStopContainer14stop_container0Bd_
FNDA:2,_RNCNvXs8_NtNtNtCscJhqz4rleTI_11atlas_local6client17delete_deployment5testsNtB7_10MockDockerNtNtBd_6docker21DockerRemoveContainer16remove_container0Bd_
FNDA:4,_RNCNvXsa_NtNtNtCscJhqz4rleTI_11atlas_local6client17delete_deployment5testsNtB7_10MockDockerNtNtBd_6docker22DockerInspectContainer17inspect_container0Bd_
FNDA:3,_RNvMNtNtNtNtNtCscJhqz4rleTI_11atlas_local6client17delete_deployment5tests37___mock_MockDocker_DockerStopContainer16___stop_containerNtB2_5Rfunc8call_mut
FNDA:3,_RNvMs0_NtNtNtNtNtCscJhqz4rleTI_11atlas_local6client17delete_deployment5tests37___mock_MockDocker_DockerStopContainer16___stop_containerNtB5_7Matcher7matches
FNDA:3,_RNvMs4_NtNtNtNtNtCscJhqz4rleTI_11atlas_local6client17delete_deployment5tests37___mock_MockDocker_DockerStopContainer16___stop_containerNtB5_6Common15verify_sequence
FNDA:3,_RNvMs4_NtNtNtNtNtCscJhqz4rleTI_11atlas_local6client17delete_deployment5tests37___mock_MockDocker_DockerStopContainer16___stop_containerNtB5_6Common16satisfy_sequence
FNDA:3,_RNvMs4_NtNtNtNtNtCscJhqz4rleTI_11atlas_local6client17delete_deployment5tests37___mock_MockDocker_DockerStopContainer16___stop_containerNtB5_6Common4call
FNDA:3,_RNvMs4_NtNtNtNtNtCscJhqz4rleTI_11atlas_local6client17delete_deployment5tests37___mock_MockDocker_DockerStopContainer16___stop_containerNtB5_6Common7is_done
FNDA:3,_RNvMs4_NtNtNtNtNtCscJhqz4rleTI_11atlas_local6client17delete_deployment5tests37___mock_MockDocker_DockerStopContainer16___stop_containerNtB5_6Common7matches
FNDA:3,_RNvMs6_NtNtNtNtNtCscJhqz4rleTI_11atlas_local6client17delete_deployment5tests37___mock_MockDocker_DockerStopContainer16___stop_containerNtB5_11Expectation4call
FNDA:3,_RNvMs6_NtNtNtNtNtCscJhqz4rleTI_11atlas_local6client17delete_deployment5tests37___mock_MockDocker_DockerStopContainer16___stop_containerNtB5_11Expectation7is_done
FNDA:3,_RNvMs6_NtNtNtNtNtCscJhqz4rleTI_11atlas_local6client17delete_deployment5tests37___mock_MockDocker_DockerStopContainer16___stop_containerNtB5_11Expectation7matches
FNDA:4,_RNvMs8_NtNtNtNtNtCscJhqz4rleTI_11atlas_local6client17delete_deployment5tests37___mock_MockDocker_DockerStopContainer16___stop_containerNtB5_12Expectations3new
FNDA:3,_RNvMs8_NtNtNtNtNtCscJhqz4rleTI_11atlas_local6client17delete_deployment5tests37___mock_MockDocker_DockerStopContainer16___stop_containerNtB5_12Expectations6expect
FNDA:3,_RNvMsa_NtNtNtNtNtCscJhqz4rleTI_11atlas_local6client17delete_deployment5tests37___mock_MockDocker_DockerStopContainer16___stop_containerNtB5_12Expectations4call
FNDA:3,_RNvXs1_NtNtNtNtNtCscJhqz4rleTI_11atlas_local6client17delete_deployment5tests37___mock_MockDocker_DockerStopContainer16___stop_containerNtB5_7MatcherNtNtCsaNl6UpbT7bw_4core7default7Default7default
FNDA:3,_RNvXs2_NtNtNtNtNtCscJhqz4rleTI_11atlas_local6client17delete_deployment5tests37___mock_MockDocker_DockerStopContainer16___stop_containerNtB5_7MatcherNtNtCsaNl6UpbT7bw_4core3fmt7Display3fmt
FNDA:3,_RNvXs3_NtNtNtNtNtCscJhqz4rleTI_11atlas_local6client17delete_deployment5tests37___mock_MockDocker_DockerStopContainer16___stop_containerNtB5_6CommonNtNtCsaNl6UpbT7bw_4core7default7Default7default
FNDA:3,_RNvXs7_NtNtNtNtNtCscJhqz4rleTI_11atlas_local6client17delete_deployment5tests37___mock_MockDocker_DockerStopContainer16___stop_containerNtB5_11ExpectationNtNtCsaNl6UpbT7bw_4core7default7Default7default
FNDA:4,_RNvXs9_NtNtNtNtNtCscJhqz4rleTI_11atlas_local6client17delete_deployment5tests37___mock_MockDocker_DockerStopContainer16___stop_containerNtB5_12ExpectationsNtNtCsaNl6UpbT7bw_4core7default7Default7default
FNDA:3,_RNvXs_NtNtNtNtNtCscJhqz4rleTI_11atlas_local6client17delete_deployment5tests37___mock_MockDocker_DockerStopContainer16___stop_containerNtB4_5RfuncNtNtCsaNl6UpbT7bw_4core7default7Default7default
FNF:24
FNH:24
DA:22,4
DA:25,4
DA:26,3
DA:29,3
DA:30,3
DA:31,3
DA:32,3
DA:35,2
DA:36,2
DA:37,2
DA:38,2
DA:40,1
DA:41,4
DA:58,3
DA:59,3
DA:60,3
DA:66,2
DA:67,2
DA:68,2
DA:74,4
DA:75,4
DA:76,4
DA:79,272
DA:81,3
DA:85,3
DA:86,3
DA:87,3
DA:88,3
DA:90,3
DA:92,3
DA:93,3
DA:94,3
DA:95,3
DA:96,3
DA:97,3
DA:98,3
DA:99,3
DA:100,3
DA:101,3
DA:102,3
DA:103,3
DA:104,3
DA:105,3
DA:106,3
DA:109,1
DA:111,1
DA:114,1
DA:115,1
DA:116,1
DA:117,1
DA:118,1
DA:119,1
DA:120,1
DA:121,1
DA:123,1
DA:124,1
DA:125,1
DA:126,1
DA:127,1
DA:128,1
DA:129,1
DA:130,1
DA:132,1
DA:133,1
DA:134,1
DA:135,1
DA:136,1
DA:137,1
DA:138,1
DA:139,1
DA:141,1
DA:144,1
DA:147,1
DA:148,1
DA:151,1
DA:153,1
DA:156,1
DA:157,1
DA:158,1
DA:159,1
DA:160,1
DA:161,1
DA:162,1
DA:163,1
DA:164,1
DA:166,1
DA:169,1
DA:172,1
DA:173,1
DA:174,1
DA:175,1
DA:176,1
DA:177,1
DA:180,1
DA:182,1
DA:185,1
DA:186,1
DA:187,1
DA:188,1
DA:190,1
DA:191,1
DA:192,1
DA:193,1
DA:194,1
DA:195,1
DA:196,1
DA:197,1
DA:198,1
DA:200,1
DA:203,1
DA:206,1
DA:207,1
DA:208,1
DA:209,1
DA:210,1
DA:211,1
DA:214,1
DA:216,1
DA:219,1
DA:220,1
DA:221,1
DA:222,1
DA:224,1
DA:225,1
DA:226,1
DA:227,1
DA:229,1
DA:230,1
DA:231,1
DA:232,1
DA:233,1
DA:234,1
DA:235,1
DA:236,1
DA:237,1
DA:239,1
DA:242,1
DA:245,1
DA:246,1
DA:247,1
DA:248,1
DA:249,1
DA:250,1
BRF:0
BRH:0
LF:164
LH:164
end_of_record
SF:/Users/jeroen.vervaeke/git/github.com/mongodb/atlas-local-lib/src/client/get_connection_string.rs
FN:78,_RNvNtNtCscJhqz4rleTI_11atlas_local6client21get_connection_string24format_connection_string
FN:135,_RNCNvMs0_NtNtNtNtNtCscJhqz4rleTI_11atlas_local6client21get_connection_string5tests39___mock_MockDocker_RunCommandInContainer26___run_command_in_containerNtB7_7Matcher7matches0Bh_
FN:135,_RNCNvMsa_NtNtNtNtNtCscJhqz4rleTI_11atlas_local6client21get_connection_string5tests39___mock_MockDocker_RunCommandInContainer26___run_command_in_containerNtB7_12Expectations4call0Bh_
FN:135,_RNCNvMsa_NtNtNtNtNtCscJhqz4rleTI_11atlas_local6client21get_connection_string5tests39___mock_MockDocker_RunCommandInContainer26___run_command_in_containerNtB7_12Expectations4calls_0Bh_
FN:24,_RNvMNtNtCscJhqz4rleTI_11atlas_local6client21get_connection_stringINtB4_6ClientNtNtB2_5tests10MockDockerE21get_connection_stringB6_
FN:53,_RNCNCNvMNtNtCscJhqz4rleTI_11atlas_local6client21get_connection_stringINtB8_6ClientNtNtB6_5tests10MockDockerE21get_connection_string00Ba_
FN:63,_RNCNCNvMNtNtCscJhqz4rleTI_11atlas_local6client21get_connection_stringINtB8_6ClientNtNtB6_5tests10MockDockerE21get_connection_string0s0_0Ba_
FN:64,_RNCNCNvMNtNtCscJhqz4rleTI_11atlas_local6client21get_connection_stringINtB8_6ClientNtNtB6_5tests10MockDockerE21get_connection_string0s1_0Ba_
FN:54,_RNCNCNvMNtNtCscJhqz4rleTI_11atlas_local6client21get_connection_stringINtB8_6ClientNtNtB6_5tests10MockDockerE21get_connection_string0s_0Ba_
FN:27,_RNCNvMNtNtCscJhqz4rleTI_11atlas_local6client21get_connection_stringINtB6_6ClientNtNtB4_5tests10MockDockerE21get_connection_string0B8_
FN:135,_RNvXs5_NtNtNtNtNtCscJhqz4rleTI_11atlas_local6client21get_connection_string5tests39___mock_MockDocker_RunCommandInContainer26___run_command_in_containerNtB5_6CommonNtNtNtCsaNl6UpbT7bw_4core3ops4drop4Drop4drop
FN:135,_RNvXs5_NtNtNtNtNtCscJhqz4rleTI_11atlas_local6client21get_connection_string5tests40___mock_MockDocker_DockerInspectContainer19___inspect_containerNtB5_6CommonNtNtNtCsaNl6UpbT7bw_4core3ops4drop4Drop4drop
FN:135,_RINvMs4_NtNtNtNtNtCscJhqz4rleTI_11atlas_local6client21get_connection_string5tests39___mock_MockDocker_RunCommandInContainer26___run_command_in_containerNtB6_6Common4withppEBg_
FN:135,_RINvMs4_NtNtNtNtNtCscJhqz4rleTI_11atlas_local6client21get_connection_string5tests39___mock_MockDocker_RunCommandInContainer26___run_command_in_containerNtB6_6Common5timespEBg_
FN:135,_RINvMs4_NtNtNtNtNtCscJhqz4rleTI_11atlas_local6client21get_connection_string5tests39___mock_MockDocker_RunCommandInContainer26___run_command_in_containerNtB6_6Common5withfpEBg_
FN:135,_RINvMs4_NtNtNtNtNtCscJhqz4rleTI_11atlas_local6client21get_connection_string5tests39___mock_MockDocker_RunCommandInContainer26___run_command_in_containerNtB6_6Common8withf_stpEBg_
FN:135,_RINvMs4_NtNtNtNtNtCscJhqz4rleTI_11atlas_local6client21get_connection_string5tests40___mock_MockDocker_DockerInspectContainer19___inspect_containerNtB6_6Common5withfpEBg_
FN:135,_RINvMs4_NtNtNtNtNtCscJhqz4rleTI_11atlas_local6client21get_connection_string5tests40___mock_MockDocker_DockerInspectContainer19___inspect_containerNtB6_6Common8withf_stpEBg_
FN:135,_RINvMs6_NtNtNtNtNtCscJhqz4rleTI_11atlas_local6client21get_connection_string5tests39___mock_MockDocker_RunCommandInContainer26___run_command_in_containerNtB6_11Expectation11return_oncepEBg_
FN:135,_RINvMs6_NtNtNtNtNtCscJhqz4rleTI_11atlas_local6client21get_connection_string5tests39___mock_MockDocker_RunCommandInContainer26___run_command_in_containerNtB6_11Expectation12return_constpEBg_
FN:135,_RINvMs6_NtNtNtNtNtCscJhqz4rleTI_11atlas_local6client21get_connection_string5tests39___mock_MockDocker_RunCommandInContainer26___run_command_in_containerNtB6_11Expectation12returning_stpEBg_
FN:135,_RINvMs6_NtNtNtNtNtCscJhqz4rleTI_11atlas_local6client21get_connection_string5tests39___mock_MockDocker_RunCommandInContainer26___run_command_in_containerNtB6_11Expectation14return_once_stpEBg_
FN:135,_RINvMs6_NtNtNtNtNtCscJhqz4rleTI_11atlas_local6client21get_connection_string5tests39___mock_MockDocker_RunCommandInContainer26___run_command_in_containerNtB6_11Expectation15return_const_stpEBg_
FN:135,_RINvMs6_NtNtNtNtNtCscJhqz4rleTI_11atlas_local6client21get_connection_string5tests39___mock_MockDocker_RunCommandInContainer26___run_command_in_containerNtB6_11Expectation4withppEBg_
FN:135,_RINvMs6_NtNtNtNtNtCscJhqz4rleTI_11atlas_local6client21get_connection_string5tests39___mock_MockDocker_RunCommandInContainer26___run_command_in_containerNtB6_11Expectation5timespEBg_
FN:135,_RINvMs6_NtNtNtNtNtCscJhqz4rleTI_11atlas_local6client21get_connection_string5tests39___mock_MockDocker_RunCommandInContainer26___run_command_in_containerNtB6_11Expectation5withfpEBg_
FN:135,_RINvMs6_NtNtNtNtNtCscJhqz4rleTI_11atlas_local6client21get_connection_string5tests39___mock_MockDocker_RunCommandInContainer26___run_command_in_containerNtB6_11Expectation8withf_stpEBg_
FN:135,_RINvMs6_NtNtNtNtNtCscJhqz4rleTI_11atlas_local6client21get_connection_string5tests39___mock_MockDocker_RunCommandInContainer26___run_command_in_containerNtB6_11Expectation9returningpEBg_
FN:135,_RINvMs6_NtNtNtNtNtCscJhqz4rleTI_11atlas_local6client21get_connection_string5tests40___mock_MockDocker_DockerInspectContainer19___inspect_containerNtB6_11Expectation11return_oncepEBg_
FN:135,_RINvMs6_NtNtNtNtNtCscJhqz4rleTI_11atlas_local6client21get_connection_string5tests40___mock_MockDocker_DockerInspectContainer19___inspect_containerNtB6_11Expectation12return_constpEBg_
FN:135,_RINvMs6_NtNtNtNtNtCscJhqz4rleTI_11atlas_local6client21get_connection_string5tests40___mock_MockDocker_DockerInspectContainer19___inspect_containerNtB6_11Expectation12returning_stpEBg_
FN:135,_RINvMs6_NtNtNtNtNtCscJhqz4rleTI_11atlas_local6client21get_connection_string5tests40___mock_MockDocker_DockerInspectContainer19___inspect_containerNtB6_11Expectation14return_once_stpEBg_
FN:135,_RINvMs6_NtNtNtNtNtCscJhqz4rleTI_11atlas_local6client21get_connection_string5tests40___mock_MockDocker_DockerInspectContainer19___inspect_containerNtB6_11Expectation15return_const_stpEBg_
FN:135,_RINvMs6_NtNtNtNtNtCscJhqz4rleTI_11atlas_local6client21get_connection_string5tests40___mock_MockDocker_DockerInspectContainer19___inspect_containerNtB6_11Expectation5withfpEBg_
FN:135,_RINvMs6_NtNtNtNtNtCscJhqz4rleTI_11atlas_local6client21get_connection_string5tests40___mock_MockDocker_DockerInspectContainer19___inspect_containerNtB6_11Expectation8withf_stpEBg_
FN:135,_RNCINvMs6_NtNtNtNtNtCscJhqz4rleTI_11atlas_local6client21get_connection_string5tests39___mock_MockDocker_RunCommandInContainer26___run_command_in_containerNtB8_11Expectation12return_constpE0Bi_
FN:135,_RNCINvMs6_NtNtNtNtNtCscJhqz4rleTI_11atlas_local6client21get_connection_string5tests39___mock_MockDocker_RunCommandInContainer26___run_command_in_containerNtB8_11Expectation15return_const_stpE0Bi_
FN:135,_RNCINvMs6_NtNtNtNtNtCscJhqz4rleTI_11atlas_local6client21get_connection_string5tests40___mock_MockDocker_DockerInspectContainer19___inspect_containerNtB8_11Expectation12return_constpE0Bi_
FN:135,_RNCINvMs6_NtNtNtNtNtCscJhqz4rleTI_11atlas_local6client21get_connection_string5tests40___mock_MockDocker_DockerInspectContainer19___inspect_containerNtB8_11Expectation15return_const_stpE0Bi_
FN:135,_RNvMs0_NtNtNtCscJhqz4rleTI_11atlas_local6client21get_connection_string5testsNtB5_33MockDocker_DockerInspectContainer10checkpoint
FN:135,_RNvMs2_NtNtNtCscJhqz4rleTI_11atlas_local6client21get_connection_string5testsNtB5_32MockDocker_RunCommandInContainer10checkpoint
FN:135,_RNvMs3_NtNtNtCscJhqz4rleTI_11atlas_local6client21get_connection_string5testsNtB5_10MockDocker10checkpoint
FN:135,_RNvMs4_NtNtNtNtNtCscJhqz4rleTI_11atlas_local6client21get_connection_string5tests39___mock_MockDocker_RunCommandInContainer26___run_command_in_containerNtB5_6Common11in_sequence
FN:135,_RNvMs4_NtNtNtNtNtCscJhqz4rleTI_11atlas_local6client21get_connection_string5tests39___mock_MockDocker_RunCommandInContainer26___run_command_in_containerNtB5_6Common5never
FN:135,_RNvMs4_NtNtNtNtNtCscJhqz4rleTI_11atlas_local6client21get_connection_string5tests40___mock_MockDocker_DockerInspectContainer19___inspect_containerNtB5_6Common11in_sequence
FN:135,_RNvMs4_NtNtNtNtNtCscJhqz4rleTI_11atlas_local6client21get_connection_string5tests40___mock_MockDocker_DockerInspectContainer19___inspect_containerNtB5_6Common5never
FN:135,_RNvMs6_NtNtNtNtNtCscJhqz4rleTI_11atlas_local6client21get_connection_string5tests39___mock_MockDocker_RunCommandInContainer26___run_command_in_containerNtB5_11Expectation11in_sequence
FN:135,_RNvMs6_NtNtNtNtNtCscJhqz4rleTI_11atlas_local6client21get_connection_string5tests39___mock_MockDocker_RunCommandInContainer26___run_command_in_containerNtB5_11Expectation3new
FN:135,_RNvMs6_NtNtNtNtNtCscJhqz4rleTI_11atlas_local6client21get_connection_string5tests39___mock_MockDocker_RunCommandInContainer26___run_command_in_containerNtB5_11Expectation4once
FN:135,_RNvMs6_NtNtNtNtNtCscJhqz4rleTI_11atlas_local6client21get_connection_string5tests39___mock_MockDocker_RunCommandInContainer26___run_command_in_containerNtB5_11Expectation5never
FN:135,_RNvMs6_NtNtNtNtNtCscJhqz4rleTI_11atlas_local6client21get_connection_string5tests40___mock_MockDocker_DockerInspectContainer19___inspect_containerNtB5_11Expectation11in_sequence
FN:135,_RNvMs6_NtNtNtNtNtCscJhqz4rleTI_11atlas_local6client21get_connection_string5tests40___mock_MockDocker_DockerInspectContainer19___inspect_containerNtB5_11Expectation3new
FN:135,_RNvMs6_NtNtNtNtNtCscJhqz4rleTI_11atlas_local6client21get_connection_string5tests40___mock_MockDocker_DockerInspectContainer19___inspect_containerNtB5_11Expectation4once
FN:135,_RNvMs6_NtNtNtNtNtCscJhqz4rleTI_11atlas_local6client21get_connection_string5tests40___mock_MockDocker_DockerInspectContainer19___inspect_containerNtB5_11Expectation5never
FN:135,_RNvMs7_NtNtNtCscJhqz4rleTI_11atlas_local6client21get_connection_string5testsNtB5_10MockDocker31expect_run_command_in_container
FN:135,_RNvMs8_NtNtNtNtNtCscJhqz4rleTI_11atlas_local6client21get_connection_string5tests39___mock_MockDocker_RunCommandInContainer26___run_command_in_containerNtB5_12Expectations10checkpoint
FN:135,_RNvMs8_NtNtNtNtNtCscJhqz4rleTI_11atlas_local6client21get_connection_string5tests39___mock_MockDocker_RunCommandInContainer26___run_command_in_containerNtB5_12Expectations6expect
FN:135,_RNvMs8_NtNtNtNtNtCscJhqz4rleTI_11atlas_local6client21get_connection_string5tests40___mock_MockDocker_DockerInspectContainer19___inspect_containerNtB5_12Expectations10checkpoint
FN:135,_RNvXs1_NtNtNtNtNtCscJhqz4rleTI_11atlas_local6client21get_connection_string5tests39___mock_MockDocker_RunCommandInContainer26___run_command_in_containerNtB5_7MatcherNtNtCsaNl6UpbT7bw_4core7default7Default7default
FN:135,_RNvXs3_NtNtNtNtNtCscJhqz4rleTI_11atlas_local6client21get_connection_string5tests39___mock_MockDocker_RunCommandInContainer26___run_command_in_containerNtB5_6CommonNtNtCsaNl6UpbT7bw_4core7default7Default7default
FN:135,_RNvXs7_NtNtNtNtNtCscJhqz4rleTI_11atlas_local6client21get_connection_string5tests39___mock_MockDocker_RunCommandInContainer26___run_command_in_containerNtB5_11ExpectationNtNtCsaNl6UpbT7bw_4core7default7Default7default
FN:135,_RNvXs_NtNtNtNtNtCscJhqz4rleTI_11atlas_local6client21get_connection_string5tests39___mock_MockDocker_RunCommandInContainer26___run_command_in_containerNtB4_5RfuncNtNtCsaNl6UpbT7bw_4core7default7Default7default
FN:150,_RNCNCNvNtNtNtCscJhqz4rleTI_11atlas_local6client21get_connection_string5testss_26test_get_connection_string00Bb_
FN:179,_RNCNCNvNtNtNtCscJhqz4rleTI_11atlas_local6client21get_connection_string5testss_34test_get_connection_string_no_auth00Bb_
FN:293,_RNCNCNvNtNtNtCscJhqz4rleTI_11atlas_local6client21get_connection_string5testss_41test_get_connection_string_verify_success00Bb_
FN:208,_RNCNCNvNtNtNtCscJhqz4rleTI_11atlas_local6client21get_connection_string5testss_47test_get_connection_string_get_deployment_error00Bb_
FN:264,_RNCNCNvNtNtNtCscJhqz4rleTI_11atlas_local6client21get_connection_string5testss_47test_get_connection_string_missing_port_binding00Bb_
FN:138,_RNCNvNtNtNtCscJhqz4rleTI_11atlas_local6client21get_connection_string5testss_26test_get_connection_string0B9_
FN:167,_RNCNvNtNtNtCscJhqz4rleTI_11atlas_local6client21get_connection_string5testss_34test_get_connection_string_no_auth0B9_
FN:281,_RNCNvNtNtNtCscJhqz4rleTI_11atlas_local6client21get_connection_string5testss_41test_get_connection_string_verify_success0B9_
FN:196,_RNCNvNtNtNtCscJhqz4rleTI_11atlas_local6client21get_connection_string5testss_47test_get_connection_string_get_deployment_error0B9_
FN:230,_RNCNvNtNtNtCscJhqz4rleTI_11atlas_local6client21get_connection_string5testss_47test_get_connection_string_missing_port_binding0B9_
FN:122,_RNCNvXs4_NtNtNtCscJhqz4rleTI_11atlas_local6client21get_connection_string5testsNtB7_10MockDockerNtNtBd_6docker22DockerInspectContainer17inspect_container0Bd_
FN:130,_RNCNvXs6_NtNtNtCscJhqz4rleTI_11atlas_local6client21get_connection_string5testsNtB7_10MockDockerNtNtBd_6docker21RunCommandInContainer24run_command_in_container0Bd_
FN:135,_RNvMNtNtNtNtNtCscJhqz4rleTI_11atlas_local6client21get_connection_string5tests39___mock_MockDocker_RunCommandInContainer26___run_command_in_containerNtB2_5Rfunc8call_mut
FN:135,_RNvMs0_NtNtNtNtNtCscJhqz4rleTI_11atlas_local6client21get_connection_string5tests39___mock_MockDocker_RunCommandInContainer26___run_command_in_containerNtB5_7Matcher7matches
FN:135,_RNvMs4_NtNtNtNtNtCscJhqz4rleTI_11atlas_local6client21get_connection_string5tests39___mock_MockDocker_RunCommandInContainer26___run_command_in_containerNtB5_6Common15verify_sequence
FN:135,_RNvMs4_NtNtNtNtNtCscJhqz4rleTI_11atlas_local6client21get_connection_string5tests39___mock_MockDocker_RunCommandInContainer26___run_command_in_containerNtB5_6Common16satisfy_sequence
FN:135,_RNvMs4_NtNtNtNtNtCscJhqz4rleTI_11atlas_local6client21get_connection_string5tests39___mock_MockDocker_RunCommandInContainer26___run_command_in_containerNtB5_6Common4call
FN:135,_RNvMs4_NtNtNtNtNtCscJhqz4rleTI_11atlas_local6client21get_connection_string5tests39___mock_MockDocker_RunCommandInContainer26___run_command_in_containerNtB5_6Common7is_done
FN:135,_RNvMs4_NtNtNtNtNtCscJhqz4rleTI_11atlas_local6client21get_connection_string5tests39___mock_MockDocker_RunCommandInContainer26___run_command_in_containerNtB5_6Common7matches
FN:135,_RNvMs6_NtNtNtNtNtCscJhqz4rleTI_11atlas_local6client21get_connection_string5tests39___mock_MockDocker_RunCommandInContainer26___run_command_in_containerNtB5_11Expectation4call
FN:135,_RNvMs6_NtNtNtNtNtCscJhqz4rleTI_11atlas_local6client21get_connection_string5tests39___mock_MockDocker_RunCommandInContainer26___run_command_in_containerNtB5_11Expectation7is_done
FN:135,_RNvMs6_NtNtNtNtNtCscJhqz4rleTI_11atlas_local6client21get_connection_string5tests39___mock_MockDocker_RunCommandInContainer26___run_command_in_containerNtB5_11Expectation7matches
FN:135,_RNvMs8_NtNtNtNtNtCscJhqz4rleTI_11atlas_local6client21get_connection_string5tests39___mock_MockDocker_RunCommandInContainer26___run_command_in_containerNtB5_12Expectations3new
FN:135,_RNvMsa_NtNtNtNtNtCscJhqz4rleTI_11atlas_local6client21get_connection_string5tests39___mock_MockDocker_RunCommandInContainer26___run_command_in_containerNtB5_12Expectations4call
FN:135,_RNvXs2_NtNtNtNtNtCscJhqz4rleTI_11atlas_local6client21get_connection_string5tests39___mock_MockDocker_RunCommandInContainer26___run_command_in_containerNtB5_7MatcherNtNtCsaNl6UpbT7bw_4core3fmt7Display3fmt
FN:135,_RNvXs9_NtNtNtNtNtCscJhqz4rleTI_11atlas_local6client21get_connection_string5tests39___mock_MockDocker_RunCommandInContainer26___run_command_in_containerNtB5_12ExpectationsNtNtCsaNl6UpbT7bw_4core7default7Default7default
FN:135,_RINvMs4_NtNtNtNtNtCscJhqz4rleTI_11atlas_local6client21get_connection_string5tests40___mock_MockDocker_DockerInspectContainer19___inspect_containerNtB6_6Common4withINtNtCsaS4gknD0Sqc_10predicates3ord11EqPredicateReEIB2C_INtNtCsaNl6UpbT7bw_4core6option6OptionNtNtCsiAmkw3NBFjt_13bollard_stubs16query_parameters23InspectContainerOptionsEEEBg_
FN:135,_RINvMs4_NtNtNtNtNtCscJhqz4rleTI_11atlas_local6client21get_connection_string5tests40___mock_MockDocker_DockerInspectContainer19___inspect_containerNtB6_6Common5timesjEBg_
FN:135,_RINvMs6_NtNtNtNtNtCscJhqz4rleTI_11atlas_local6client21get_connection_string5tests40___mock_MockDocker_DockerInspectContainer19___inspect_containerNtB6_11Expectation4withINtNtCsaS4gknD0Sqc_10predicates3ord11EqPredicateReEIB2I_INtNtCsaNl6UpbT7bw_4core6option6OptionNtNtCsiAmkw3NBFjt_13bollard_stubs16query_parameters23InspectContainerOptionsEEEBg_
FN:135,_RINvMs6_NtNtNtNtNtCscJhqz4rleTI_11atlas_local6client21get_connection_string5tests40___mock_MockDocker_DockerInspectContainer19___inspect_containerNtB6_11Expectation5timesjEBg_
FN:135,_RINvMs6_NtNtNtNtNtCscJhqz4rleTI_11atlas_local6client21get_connection_string5tests40___mock_MockDocker_DockerInspectContainer19___inspect_containerNtB6_11Expectation9returningNCNCNvBa_s_26test_get_connection_string00EBg_
FN:135,_RINvMs6_NtNtNtNtNtCscJhqz4rleTI_11atlas_local6client21get_connection_string5tests40___mock_MockDocker_DockerInspectContainer19___inspect_containerNtB6_11Expectation9returningNCNCNvBa_s_34test_get_connection_string_no_auth00EBg_
FN:135,_RINvMs6_NtNtNtNtNtCscJhqz4rleTI_11atlas_local6client21get_connection_string5tests40___mock_MockDocker_DockerInspectContainer19___inspect_containerNtB6_11Expectation9returningNCNCNvBa_s_41test_get_connection_string_verify_success00EBg_
FN:135,_RINvMs6_NtNtNtNtNtCscJhqz4rleTI_11atlas_local6client21get_connection_string5tests40___mock_MockDocker_DockerInspectContainer19___inspect_containerNtB6_11Expectation9returningNCNCNvBa_s_47test_get_connection_string_get_deployment_error00EBg_
FN:135,_RINvMs6_NtNtNtNtNtCscJhqz4rleTI_11atlas_local6client21get_connection_string5tests40___mock_MockDocker_DockerInspectContainer19___inspect_containerNtB6_11Expectation9returningNCNCNvBa_s_47test_get_connection_string_missing_port_binding00EBg_
FN:135,_RNCNvMs0_NtNtNtNtNtCscJhqz4rleTI_11atlas_local6client21get_connection_string5tests40___mock_MockDocker_DockerInspectContainer19___inspect_containerNtB7_7Matcher7matches0Bh_
FN:135,_RNCNvMsa_NtNtNtNtNtCscJhqz4rleTI_11atlas_local6client21get_connection_string5tests40___mock_MockDocker_DockerInspectContainer19___inspect_containerNtB7_12Expectations4call0Bh_
FN:135,_RNCNvMsa_NtNtNtNtNtCscJhqz4rleTI_11atlas_local6client21get_connection_string5tests40___mock_MockDocker_DockerInspectContainer19___inspect_containerNtB7_12Expectations4calls_0Bh_
FN:135,_RNvMs3_NtNtNtCscJhqz4rleTI_11atlas_local6client21get_connection_string5testsNtB5_10MockDocker3new
FN:135,_RNvMs5_NtNtNtCscJhqz4rleTI_11atlas_local6client21get_connection_string5testsNtB5_10MockDocker24expect_inspect_container
FN:138,_RNvNtNtNtCscJhqz4rleTI_11atlas_local6client21get_connection_string5testss_26test_get_connection_string
FN:167,_RNvNtNtNtCscJhqz4rleTI_11atlas_local6client21get_connection_string5testss_34test_get_connection_string_no_auth
FN:281,_RNvNtNtNtCscJhqz4rleTI_11atlas_local6client21get_connection_string5testss_41test_get_connection_string_verify_success
FN:196,_RNvNtNtNtCscJhqz4rleTI_11atlas_local6client21get_connection_string5testss_47test_get_connection_string_get_deployment_error
FN:230,_RNvNtNtNtCscJhqz4rleTI_11atlas_local6client21get_connection_string5testss_47test_get_connection_string_missing_port_binding
FN:135,_RNvXNtNtNtCscJhqz4rleTI_11atlas_local6client21get_connection_string5testsNtB2_10MockDockerNtNtCsaNl6UpbT7bw_4core7default7Default7default
FN:135,_RNvXs1_NtNtNtCscJhqz4rleTI_11atlas_local6client21get_connection_string5testsNtB5_32MockDocker_RunCommandInContainerNtNtCsaNl6UpbT7bw_4core7default7Default7default
FN:135,_RNvXs_NtNtNtCscJhqz4rleTI_11atlas_local6client21get_connection_string5testsNtB4_33MockDocker_DockerInspectContainerNtNtCsaNl6UpbT7bw_4core7default7Default7default
FN:135,_RNvMNtNtNtNtNtCscJhqz4rleTI_11atlas_local6client21get_connection_string5tests40___mock_MockDocker_DockerInspectContainer19___inspect_containerNtB2_5Rfunc8call_mut
FN:135,_RNvMs0_NtNtNtNtNtCscJhqz4rleTI_11atlas_local6client21get_connection_string5tests40___mock_MockDocker_DockerInspectContainer19___inspect_containerNtB5_7Matcher7matches
FN:135,_RNvMs4_NtNtNtNtNtCscJhqz4rleTI_11atlas_local6client21get_connection_string5tests40___mock_MockDocker_DockerInspectContainer19___inspect_containerNtB5_6Common15verify_sequence
FN:135,_RNvMs4_NtNtNtNtNtCscJhqz4rleTI_11atlas_local6client21get_connection_string5tests40___mock_MockDocker_DockerInspectContainer19___inspect_containerNtB5_6Common16satisfy_sequence
FN:135,_RNvMs4_NtNtNtNtNtCscJhqz4rleTI_11atlas_local6client21get_connection_string5tests40___mock_MockDocker_DockerInspectContainer19___inspect_containerNtB5_6Common4call
FN:135,_RNvMs4_NtNtNtNtNtCscJhqz4rleTI_11atlas_local6client21get_connection_string5tests40___mock_MockDocker_DockerInspectContainer19___inspect_containerNtB5_6Common7is_done
FN:135,_RNvMs4_NtNtNtNtNtCscJhqz4rleTI_11atlas_local6client21get_connection_string5tests40___mock_MockDocker_DockerInspectContainer19___inspect_containerNtB5_6Common7matches
FN:135,_RNvMs6_NtNtNtNtNtCscJhqz4rleTI_11atlas_local6client21get_connection_string5tests40___mock_MockDocker_DockerInspectContainer19___inspect_containerNtB5_11Expectation4call
FN:135,_RNvMs6_NtNtNtNtNtCscJhqz4rleTI_11atlas_local6client21get_connection_string5tests40___mock_MockDocker_DockerInspectContainer19___inspect_containerNtB5_11Expectation7is_done
FN:135,_RNvMs6_NtNtNtNtNtCscJhqz4rleTI_11atlas_local6client21get_connection_string5tests40___mock_MockDocker_DockerInspectContainer19___inspect_containerNtB5_11Expectation7matches
FN:135,_RNvMs8_NtNtNtNtNtCscJhqz4rleTI_11atlas_local6client21get_connection_string5tests40___mock_MockDocker_DockerInspectContainer19___inspect_containerNtB5_12Expectations3new
FN:135,_RNvMs8_NtNtNtNtNtCscJhqz4rleTI_11atlas_local6client21get_connection_string5tests40___mock_MockDocker_DockerInspectContainer19___inspect_containerNtB5_12Expectations6expect
FN:135,_RNvMsa_NtNtNtNtNtCscJhqz4rleTI_11atlas_local6client21get_connection_string5tests40___mock_MockDocker_DockerInspectContainer19___inspect_containerNtB5_12Expectations4call
FN:135,_RNvXs1_NtNtNtNtNtCscJhqz4rleTI_11atlas_local6client21get_connection_string5tests40___mock_MockDocker_DockerInspectContainer19___inspect_containerNtB5_7MatcherNtNtCsaNl6UpbT7bw_4core7default7Default7default
FN:135,_RNvXs2_NtNtNtNtNtCscJhqz4rleTI_11atlas_local6client21get_connection_string5tests40___mock_MockDocker_DockerInspectContainer19___inspect_containerNtB5_7MatcherNtNtCsaNl6UpbT7bw_4core3fmt7Display3fmt
FN:135,_RNvXs3_NtNtNtNtNtCscJhqz4rleTI_11atlas_local6client21get_connection_string5tests40___mock_MockDocker_DockerInspectContainer19___inspect_containerNtB5_6CommonNtNtCsaNl6UpbT7bw_4core7default7Default7default
FN:135,_RNvXs7_NtNtNtNtNtCscJhqz4rleTI_11atlas_local6client21get_connection_string5tests40___mock_MockDocker_DockerInspectContainer19___inspect_containerNtB5_11ExpectationNtNtCsaNl6UpbT7bw_4core7default7Default7default
FN:135,_RNvXs9_NtNtNtNtNtCscJhqz4rleTI_11atlas_local6client21get_connection_string5tests40___mock_MockDocker_DockerInspectContainer19___inspect_containerNtB5_12ExpectationsNtNtCsaNl6UpbT7bw_4core7default7Default7default
FN:135,_RNvXs_NtNtNtNtNtCscJhqz4rleTI_11atlas_local6client21get_connection_string5tests40___mock_MockDocker_DockerInspectContainer19___inspect_containerNtB4_5RfuncNtNtCsaNl6UpbT7bw_4core7default7Default7default
FNDA:3,_RNvNtNtCscJhqz4rleTI_11atlas_local6client21get_connection_string24format_connection_string
FNDA:0,_RNCNvMs0_NtNtNtNtNtCscJhqz4rleTI_11atlas_local6client21get_connection_string5tests39___mock_MockDocker_RunCommandInContainer26___run_command_in_containerNtB7_7Matcher7matches0Bh_
FNDA:0,_RNCNvMsa_NtNtNtNtNtCscJhqz4rleTI_11atlas_local6client21get_connection_string5tests39___mock_MockDocker_RunCommandInContainer26___run_command_in_containerNtB7_12Expectations4call0Bh_
FNDA:0,_RNCNvMsa_NtNtNtNtNtCscJhqz4rleTI_11atlas_local6client21get_connection_string5tests39___mock_MockDocker_RunCommandInContainer26___run_command_in_containerNtB7_12Expectations4calls_0Bh_
FNDA:5,_RNvMNtNtCscJhqz4rleTI_11atlas_local6client21get_connection_stringINtB4_6ClientNtNtB2_5tests10MockDockerE21get_connection_stringB6_
FNDA:3,_RNCNCNvMNtNtCscJhqz4rleTI_11atlas_local6client21get_connection_stringINtB8_6ClientNtNtB6_5tests10MockDockerE21get_connection_string00Ba_
FNDA:3,_RNCNCNvMNtNtCscJhqz4rleTI_11atlas_local6client21get_connection_stringINtB8_6ClientNtNtB6_5tests10MockDockerE21get_connection_string0s0_0Ba_
FNDA:1,_RNCNCNvMNtNtCscJhqz4rleTI_11atlas_local6client21get_connection_stringINtB8_6ClientNtNtB6_5tests10MockDockerE21get_connection_string0s1_0Ba_
FNDA:1,_RNCNCNvMNtNtCscJhqz4rleTI_11atlas_local6client21get_connection_stringINtB8_6ClientNtNtB6_5tests10MockDockerE21get_connection_string0s_0Ba_
FNDA:5,_RNCNvMNtNtCscJhqz4rleTI_11atlas_local6client21get_connection_stringINtB6_6ClientNtNtB4_5tests10MockDockerE21get_connection_string0B8_
FNDA:0,_RNvXs5_NtNtNtNtNtCscJhqz4rleTI_11atlas_local6client21get_connection_string5tests39___mock_MockDocker_RunCommandInContainer26___run_command_in_containerNtB5_6CommonNtNtNtCsaNl6UpbT7bw_4core3ops4drop4Drop4drop
FNDA:5,_RNvXs5_NtNtNtNtNtCscJhqz4rleTI_11atlas_local6client21get_connection_string5tests40___mock_MockDocker_DockerInspectContainer19___inspect_containerNtB5_6CommonNtNtNtCsaNl6UpbT7bw_4core3ops4drop4Drop4drop
FNDA:0,_RINvMs4_NtNtNtNtNtCscJhqz4rleTI_11atlas_local6client21get_connection_string5tests39___mock_MockDocker_RunCommandInContainer26___run_command_in_containerNtB6_6Common4withppEBg_
FNDA:0,_RINvMs4_NtNtNtNtNtCscJhqz4rleTI_11atlas_local6client21get_connection_string5tests39___mock_MockDocker_RunCommandInContainer26___run_command_in_containerNtB6_6Common5timespEBg_
FNDA:0,_RINvMs4_NtNtNtNtNtCscJhqz4rleTI_11atlas_local6client21get_connection_string5tests39___mock_MockDocker_RunCommandInContainer26___run_command_in_containerNtB6_6Common5withfpEBg_
FNDA:0,_RINvMs4_NtNtNtNtNtCscJhqz4rleTI_11atlas_local6client21get_connection_string5tests39___mock_MockDocker_RunCommandInContainer26___run_command_in_containerNtB6_6Common8withf_stpEBg_
FNDA:0,_RINvMs4_NtNtNtNtNtCscJhqz4rleTI_11atlas_local6client21get_connection_string5tests40___mock_MockDocker_DockerInspectContainer19___inspect_containerNtB6_6Common5withfpEBg_
FNDA:0,_RINvMs4_NtNtNtNtNtCscJhqz4rleTI_11atlas_local6client21get_connection_string5tests40___mock_MockDocker_DockerInspectContainer19___inspect_containerNtB6_6Common8withf_stpEBg_
FNDA:0,_RINvMs6_NtNtNtNtNtCscJhqz4rleTI_11atlas_local6client21get_connection_string5tests39___mock_MockDocker_RunCommandInContainer26___run_command_in_containerNtB6_11Expectation11return_oncepEBg_
FNDA:0,_RINvMs6_NtNtNtNtNtCscJhqz4rleTI_11atlas_local6client21get_connection_string5tests39___mock_MockDocker_RunCommandInContainer26___run_command_in_containerNtB6_11Expectation12return_constpEBg_
FNDA:0,_RINvMs6_NtNtNtNtNtCscJhqz4rleTI_11atlas_local6client21get_connection_string5tests39___mock_MockDocker_RunCommandInContainer26___run_command_in_containerNtB6_11Expectation12returning_stpEBg_
FNDA:0,_RINvMs6_NtNtNtNtNtCscJhqz4rleTI_11atlas_local6client21get_connection_string5tests39___mock_MockDocker_RunCommandInContainer26___run_command_in_containerNtB6_11Expectation14return_once_stpEBg_
FNDA:0,_RINvMs6_NtNtNtNtNtCscJhqz4rleTI_11atlas_local6client21get_connection_string5tests39___mock_MockDocker_RunCommandInContainer26___run_command_in_containerNtB6_11Expectation15return_const_stpEBg_
FNDA:0,_RINvMs6_NtNtNtNtNtCscJhqz4rleTI_11atlas_local6client21get_connection_string5tests39___mock_MockDocker_RunCommandInContainer26___run_command_in_containerNtB6_11Expectation4withppEBg_
FNDA:0,_RINvMs6_NtNtNtNtNtCscJhqz4rleTI_11atlas_local6client21get_connection_string5tests39___mock_MockDocker_RunCommandInContainer26___run_command_in_containerNtB6_11Expectation5timespEBg_
FNDA:0,_RINvMs6_NtNtNtNtNtCscJhqz4rleTI_11atlas_local6client21get_connection_string5tests39___mock_MockDocker_RunCommandInContainer26___run_command_in_containerNtB6_11Expectation5withfpEBg_
FNDA:0,_RINvMs6_NtNtNtNtNtCscJhqz4rleTI_11atlas_local6client21get_connection_string5tests39___mock_MockDocker_RunCommandInContainer26___run_command_in_containerNtB6_11Expectation8withf_stpEBg_
FNDA:0,_RINvMs6_NtNtNtNtNtCscJhqz4rleTI_11atlas_local6client21get_connection_string5tests39___mock_MockDocker_RunCommandInContainer26___run_command_in_containerNtB6_11Expectation9returningpEBg_
FNDA:0,_RINvMs6_NtNtNtNtNtCscJhqz4rleTI_11atlas_local6client21get_connection_string5tests40___mock_MockDocker_DockerInspectContainer19___inspect_containerNtB6_11Expectation11return_oncepEBg_
FNDA:0,_RINvMs6_NtNtNtNtNtCscJhqz4rleTI_11atlas_local6client21get_connection_string5tests40___mock_MockDocker_DockerInspectContainer19___inspect_containerNtB6_11Expectation12return_constpEBg_
FNDA:0,_RINvMs6_NtNtNtNtNtCscJhqz4rleTI_11atlas_local6client21get_connection_string5tests40___mock_MockDocker_DockerInspectContainer19___inspect_containerNtB6_11Expectation12returning_stpEBg_
FNDA:0,_RINvMs6_NtNtNtNtNtCscJhqz4rleTI_11atlas_local6client21get_connection_string5tests40___mock_MockDocker_DockerInspectContainer19___inspect_containerNtB6_11Expectation14return_once_stpEBg_
FNDA:0,_RINvMs6_NtNtNtNtNtCscJhqz4rleTI_11atlas_local6client21get_connection_string5tests40___mock_MockDocker_DockerInspectContainer19___inspect_containerNtB6_11Expectation15return_const_stpEBg_
FNDA:0,_RINvMs6_NtNtNtNtNtCscJhqz4rleTI_11atlas_local6client21get_connection_string5tests40___mock_MockDocker_DockerInspectContainer19___inspect_containerNtB6_11Expectation5withfpEBg_
FNDA:0,_RINvMs6_NtNtNtNtNtCscJhqz4rleTI_11atlas_local6client21get_connection_string5tests40___mock_MockDocker_DockerInspectContainer19___inspect_containerNtB6_11Expectation8withf_stpEBg_
FNDA:0,_RNCINvMs6_NtNtNtNtNtCscJhqz4rleTI_11atlas_local6client21get_connection_string5tests39___mock_MockDocker_RunCommandInContainer26___run_command_in_containerNtB8_11Expectation12return_constpE0Bi_
FNDA:0,_RNCINvMs6_NtNtNtNtNtCscJhqz4rleTI_11atlas_local6client21get_connection_string5tests39___mock_MockDocker_RunCommandInContainer26___run_command_in_containerNtB8_11Expectation15return_const_stpE0Bi_
FNDA:0,_RNCINvMs6_NtNtNtNtNtCscJhqz4rleTI_11atlas_local6client21get_connection_string5tests40___mock_MockDocker_DockerInspectContainer19___inspect_containerNtB8_11Expectation12return_constpE0Bi_
FNDA:0,_RNCINvMs6_NtNtNtNtNtCscJhqz4rleTI_11atlas_local6client21get_connection_string5tests40___mock_MockDocker_DockerInspectContainer19___inspect_containerNtB8_11Expectation15return_const_stpE0Bi_
FNDA:0,_RNvMs0_NtNtNtCscJhqz4rleTI_11atlas_local6client21get_connection_string5testsNtB5_33MockDocker_DockerInspectContainer10checkpoint
FNDA:0,_RNvMs2_NtNtNtCscJhqz4rleTI_11atlas_local6client21get_connection_string5testsNtB5_32MockDocker_RunCommandInContainer10checkpoint
FNDA:0,_RNvMs3_NtNtNtCscJhqz4rleTI_11atlas_local6client21get_connection_string5testsNtB5_10MockDocker10checkpoint
FNDA:0,_RNvMs4_NtNtNtNtNtCscJhqz4rleTI_11atlas_local6client21get_connection_string5tests39___mock_MockDocker_RunCommandInContainer26___run_command_in_containerNtB5_6Common11in_sequence
FNDA:0,_RNvMs4_NtNtNtNtNtCscJhqz4rleTI_11atlas_local6client21get_connection_string5tests39___mock_MockDocker_RunCommandInContainer26___run_command_in_containerNtB5_6Common5never
FNDA:0,_RNvMs4_NtNtNtNtNtCscJhqz4rleTI_11atlas_local6client21get_connection_string5tests40___mock_MockDocker_DockerInspectContainer19___inspect_containerNtB5_6Common11in_sequence
FNDA:0,_RNvMs4_NtNtNtNtNtCscJhqz4rleTI_11atlas_local6client21get_connection_string5tests40___mock_MockDocker_DockerInspectContainer19___inspect_containerNtB5_6Common5never
FNDA:0,_RNvMs6_NtNtNtNtNtCscJhqz4rleTI_11atlas_local6client21get_connection_string5tests39___mock_MockDocker_RunCommandInContainer26___run_command_in_containerNtB5_11Expectation11in_sequence
FNDA:0,_RNvMs6_NtNtNtNtNtCscJhqz4rleTI_11atlas_local6client21get_connection_string5tests39___mock_MockDocker_RunCommandInContainer26___run_command_in_containerNtB5_11Expectation3new
FNDA:0,_RNvMs6_NtNtNtNtNtCscJhqz4rleTI_11atlas_local6client21get_connection_string5tests39___mock_MockDocker_RunCommandInContainer26___run_command_in_containerNtB5_11Expectation4once
FNDA:0,_RNvMs6_NtNtNtNtNtCscJhqz4rleTI_11atlas_local6client21get_connection_string5tests39___mock_MockDocker_RunCommandInContainer26___run_command_in_containerNtB5_11Expectation5never
FNDA:0,_RNvMs6_NtNtNtNtNtCscJhqz4rleTI_11atlas_local6client21get_connection_string5tests40___mock_MockDocker_DockerInspectContainer19___inspect_containerNtB5_11Expectation11in_sequence
FNDA:0,_RNvMs6_NtNtNtNtNtCscJhqz4rleTI_11atlas_local6client21get_connection_string5tests40___mock_MockDocker_DockerInspectContainer19___inspect_containerNtB5_11Expectation3new
FNDA:0,_RNvMs6_NtNtNtNtNtCscJhqz4rleTI_11atlas_local6client21get_connection_string5tests40___mock_MockDocker_DockerInspectContainer19___inspect_containerNtB5_11Expectation4once
FNDA:0,_RNvMs6_NtNtNtNtNtCscJhqz4rleTI_11atlas_local6client21get_connection_string5tests40___mock_MockDocker_DockerInspectContainer19___inspect_containerNtB5_11Expectation5never
FNDA:0,_RNvMs7_NtNtNtCscJhqz4rleTI_11atlas_local6client21get_connection_string5testsNtB5_10MockDocker31expect_run_command_in_container
FNDA:0,_RNvMs8_NtNtNtNtNtCscJhqz4rleTI_11atlas_local6client21get_connection_string5tests39___mock_MockDocker_RunCommandInContainer26___run_command_in_containerNtB5_12Expectations10checkpoint
FNDA:0,_RNvMs8_NtNtNtNtNtCscJhqz4rleTI_11atlas_local6client21get_connection_string5tests39___mock_MockDocker_RunCommandInContainer26___run_command_in_containerNtB5_12Expectations6expect
FNDA:0,_RNvMs8_NtNtNtNtNtCscJhqz4rleTI_11atlas_local6client21get_connection_string5tests40___mock_MockDocker_DockerInspectContainer19___inspect_containerNtB5_12Expectations10checkpoint
FNDA:0,_RNvXs1_NtNtNtNtNtCscJhqz4rleTI_11atlas_local6client21get_connection_string5tests39___mock_MockDocker_RunCommandInContainer26___run_command_in_containerNtB5_7MatcherNtNtCsaNl6UpbT7bw_4core7default7Default7default
FNDA:0,_RNvXs3_NtNtNtNtNtCscJhqz4rleTI_11atlas_local6client21get_connection_string5tests39___mock_MockDocker_RunCommandInContainer26___run_command_in_containerNtB5_6CommonNtNtCsaNl6UpbT7bw_4core7default7Default7default
FNDA:0,_RNvXs7_NtNtNtNtNtCscJhqz4rleTI_11atlas_local6client21get_connection_string5tests39___mock_MockDocker_RunCommandInContainer26___run_command_in_containerNtB5_11ExpectationNtNtCsaNl6UpbT7bw_4core7default7Default7default
FNDA:0,_RNvXs_NtNtNtNtNtCscJhqz4rleTI_11atlas_local6client21get_connection_string5tests39___mock_MockDocker_RunCommandInContainer26___run_command_in_containerNtB4_5RfuncNtNtCsaNl6UpbT7bw_4core7default7Default7default
FNDA:1,_RNCNCNvNtNtNtCscJhqz4rleTI_11atlas_local6client21get_connection_string5testss_26test_get_connection_string00Bb_
FNDA:1,_RNCNCNvNtNtNtCscJhqz4rleTI_11atlas_local6client21get_connection_string5testss_34test_get_connection_string_no_auth00Bb_
FNDA:1,_RNCNCNvNtNtNtCscJhqz4rleTI_11atlas_local6client21get_connection_string5testss_41test_get_connection_string_verify_success00Bb_
FNDA:1,_RNCNCNvNtNtNtCscJhqz4rleTI_11atlas_local6client21get_connection_string5testss_47test_get_connection_string_get_deployment_error00Bb_
FNDA:1,_RNCNCNvNtNtNtCscJhqz4rleTI_11atlas_local6client21get_connection_string5testss_47test_get_connection_string_missing_port_binding00Bb_
FNDA:1,_RNCNvNtNtNtCscJhqz4rleTI_11atlas_local6client21get_connection_string5testss_26test_get_connection_string0B9_
FNDA:1,_RNCNvNtNtNtCscJhqz4rleTI_11atlas_local6client21get_connection_string5testss_34test_get_connection_string_no_auth0B9_
FNDA:1,_RNCNvNtNtNtCscJhqz4rleTI_11atlas_local6client21get_connection_string5testss_41test_get_connection_string_verify_success0B9_
FNDA:1,_RNCNvNtNtNtCscJhqz4rleTI_11atlas_local6client21get_connection_string5testss_47test_get_connection_string_get_deployment_error0B9_
FNDA:1,_RNCNvNtNtNtCscJhqz4rleTI_11atlas_local6client21get_connection_string5testss_47test_get_connection_string_missing_port_binding0B9_
FNDA:5,_RNCNvXs4_NtNtNtCscJhqz4rleTI_11atlas_local6client21get_connection_string5testsNtB7_10MockDockerNtNtBd_6docker22DockerInspectContainer17inspect_container0Bd_
FNDA:0,_RNCNvXs6_NtNtNtCscJhqz4rleTI_11atlas_local6client21get_connection_string5testsNtB7_10MockDockerNtNtBd_6docker21RunCommandInContainer24run_command_in_container0Bd_
FNDA:0,_RNvMNtNtNtNtNtCscJhqz4rleTI_11atlas_local6client21get_connection_string5tests39___mock_MockDocker_RunCommandInContainer26___run_command_in_containerNtB2_5Rfunc8call_mut
FNDA:0,_RNvMs0_NtNtNtNtNtCscJhqz4rleTI_11atlas_local6client21get_connection_string5tests39___mock_MockDocker_RunCommandInContainer26___run_command_in_containerNtB5_7Matcher7matches
FNDA:0,_RNvMs4_NtNtNtNtNtCscJhqz4rleTI_11atlas_local6client21get_connection_string5tests39___mock_MockDocker_RunCommandInContainer26___run_command_in_containerNtB5_6Common15verify_sequence
FNDA:0,_RNvMs4_NtNtNtNtNtCscJhqz4rleTI_11atlas_local6client21get_connection_string5tests39___mock_MockDocker_RunCommandInContainer26___run_command_in_containerNtB5_6Common16satisfy_sequence
FNDA:0,_RNvMs4_NtNtNtNtNtCscJhqz4rleTI_11atlas_local6client21get_connection_string5tests39___mock_MockDocker_RunCommandInContainer26___run_command_in_containerNtB5_6Common4call
FNDA:0,_RNvMs4_NtNtNtNtNtCscJhqz4rleTI_11atlas_local6client21get_connection_string5tests39___mock_MockDocker_RunCommandInContainer26___run_command_in_containerNtB5_6Common7is_done
FNDA:0,_RNvMs4_NtNtNtNtNtCscJhqz4rleTI_11atlas_local6client21get_connection_string5tests39___mock_MockDocker_RunCommandInContainer26___run_command_in_containerNtB5_6Common7matches
FNDA:0,_RNvMs6_NtNtNtNtNtCscJhqz4rleTI_11atlas_local6client21get_connection_string5tests39___mock_MockDocker_RunCommandInContainer26___run_command_in_containerNtB5_11Expectation4call
FNDA:0,_RNvMs6_NtNtNtNtNtCscJhqz4rleTI_11atlas_local6client21get_connection_string5tests39___mock_MockDocker_RunCommandInContainer26___run_command_in_containerNtB5_11Expectation7is_done
FNDA:0,_RNvMs6_NtNtNtNtNtCscJhqz4rleTI_11atlas_local6client21get_connection_string5tests39___mock_MockDocker_RunCommandInContainer26___run_command_in_containerNtB5_11Expectation7matches
FNDA:5,_RNvMs8_NtNtNtNtNtCscJhqz4rleTI_11atlas_local6client21get_connection_string5tests39___mock_MockDocker_RunCommandInContainer26___run_command_in_containerNtB5_12Expectations3new
FNDA:0,_RNvMsa_NtNtNtNtNtCscJhqz4rleTI_11atlas_local6client21get_connection_string5tests39___mock_MockDocker_RunCommandInContainer26___run_command_in_containerNtB5_12Expectations4call
FNDA:0,_RNvXs2_NtNtNtNtNtCscJhqz4rleTI_11atlas_local6client21get_connection_string5tests39___mock_MockDocker_RunCommandInContainer26___run_command_in_containerNtB5_7MatcherNtNtCsaNl6UpbT7bw_4core3fmt7Display3fmt
FNDA:5,_RNvXs9_NtNtNtNtNtCscJhqz4rleTI_11atlas_local6client21get_connection_string5tests39___mock_MockDocker_RunCommandInContainer26___run_command_in_containerNtB5_12ExpectationsNtNtCsaNl6UpbT7bw_4core7default7Default7default
FNDA:5,_RINvMs4_NtNtNtNtNtCscJhqz4rleTI_11atlas_local6client21get_connection_string5tests40___mock_MockDocker_DockerInspectContainer19___inspect_containerNtB6_6Common4withINtNtCsaS4gknD0Sqc_10predicates3ord11EqPredicateReEIB2C_INtNtCsaNl6UpbT7bw_4core6option6OptionNtNtCsiAmkw3NBFjt_13bollard_stubs16query_parameters23InspectContainerOptionsEEEBg_
FNDA:5,_RINvMs4_NtNtNtNtNtCscJhqz4rleTI_11atlas_local6client21get_connection_string5tests40___mock_MockDocker_DockerInspectContainer19___inspect_containerNtB6_6Common5timesjEBg_
FNDA:5,_RINvMs6_NtNtNtNtNtCscJhqz4rleTI_11atlas_local6client21get_connection_string5tests40___mock_MockDocker_DockerInspectContainer19___inspect_containerNtB6_11Expectation4withINtNtCsaS4gknD0Sqc_10predicates3ord11EqPredicateReEIB2I_INtNtCsaNl6UpbT7bw_4core6option6OptionNtNtCsiAmkw3NBFjt_13bollard_stubs16query_parameters23InspectContainerOptionsEEEBg_
FNDA:5,_RINvMs6_NtNtNtNtNtCscJhqz4rleTI_11atlas_local6client21get_connection_string5tests40___mock_MockDocker_DockerInspectContainer19___inspect_containerNtB6_11Expectation5timesjEBg_
FNDA:1,_RINvMs6_NtNtNtNtNtCscJhqz4rleTI_11atlas_local6client21get_connection_string5tests40___mock_MockDocker_DockerInspectContainer19___inspect_containerNtB6_11Expectation9returningNCNCNvBa_s_26test_get_connection_string00EBg_
FNDA:1,_RINvMs6_NtNtNtNtNtCscJhqz4rleTI_11atlas_local6client21get_connection_string5tests40___mock_MockDocker_DockerInspectContainer19___inspect_containerNtB6_11Expectation9returningNCNCNvBa_s_34test_get_connection_string_no_auth00EBg_
FNDA:1,_RINvMs6_NtNtNtNtNtCscJhqz4rleTI_11atlas_local6client21get_connection_string5tests40___mock_MockDocker_DockerInspectContainer19___inspect_containerNtB6_11Expectation9returningNCNCNvBa_s_41test_get_connection_string_verify_success00EBg_
FNDA:1,_RINvMs6_NtNtNtNtNtCscJhqz4rleTI_11atlas_local6client21get_connection_string5tests40___mock_MockDocker_DockerInspectContainer19___inspect_containerNtB6_11Expectation9returningNCNCNvBa_s_47test_get_connection_string_get_deployment_error00EBg_
FNDA:1,_RINvMs6_NtNtNtNtNtCscJhqz4rleTI_11atlas_local6client21get_connection_string5tests40___mock_MockDocker_DockerInspectContainer19___inspect_containerNtB6_11Expectation9returningNCNCNvBa_s_47test_get_connection_string_missing_port_binding00EBg_
FNDA:10,_RNCNvMs0_NtNtNtNtNtCscJhqz4rleTI_11atlas_local6client21get_connection_string5tests40___mock_MockDocker_DockerInspectContainer19___inspect_containerNtB7_7Matcher7matches0Bh_
FNDA:5,_RNCNvMsa_NtNtNtNtNtCscJhqz4rleTI_11atlas_local6client21get_connection_string5tests40___mock_MockDocker_DockerInspectContainer19___inspect_containerNtB7_12Expectations4call0Bh_
FNDA:5,_RNCNvMsa_NtNtNtNtNtCscJhqz4rleTI_11atlas_local6client21get_connection_string5tests40___mock_MockDocker_DockerInspectContainer19___inspect_containerNtB7_12Expectations4calls_0Bh_
FNDA:5,_RNvMs3_NtNtNtCscJhqz4rleTI_11atlas_local6client21get_connection_string5testsNtB5_10MockDocker3new
FNDA:5,_RNvMs5_NtNtNtCscJhqz4rleTI_11atlas_local6client21get_connection_string5testsNtB5_10MockDocker24expect_inspect_container
FNDA:1,_RNvNtNtNtCscJhqz4rleTI_11atlas_local6client21get_connection_string5testss_26test_get_connection_string
FNDA:1,_RNvNtNtNtCscJhqz4rleTI_11atlas_local6client21get_connection_string5testss_34test_get_connection_string_no_auth
FNDA:1,_RNvNtNtNtCscJhqz4rleTI_11atlas_local6client21get_connection_string5testss_41test_get_connection_string_verify_success
FNDA:1,_RNvNtNtNtCscJhqz4rleTI_11atlas_local6client21get_connection_string5testss_47test_get_connection_string_get_deployment_error
FNDA:1,_RNvNtNtNtCscJhqz4rleTI_11atlas_local6client21get_connection_string5testss_47test_get_connection_string_missing_port_binding
FNDA:5,_RNvXNtNtNtCscJhqz4rleTI_11atlas_local6client21get_connection_string5testsNtB2_10MockDockerNtNtCsaNl6UpbT7bw_4core7default7Default7default
FNDA:5,_RNvXs1_NtNtNtCscJhqz4rleTI_11atlas_local6client21get_connection_string5testsNtB5_32MockDocker_RunCommandInContainerNtNtCsaNl6UpbT7bw_4core7default7Default7default
FNDA:5,_RNvXs_NtNtNtCscJhqz4rleTI_11atlas_local6client21get_connection_string5testsNtB4_33MockDocker_DockerInspectContainerNtNtCsaNl6UpbT7bw_4core7default7Default7default
FNDA:5,_RNvMNtNtNtNtNtCscJhqz4rleTI_11atlas_local6client21get_connection_string5tests40___mock_MockDocker_DockerInspectContainer19___inspect_containerNtB2_5Rfunc8call_mut
FNDA:5,_RNvMs0_NtNtNtNtNtCscJhqz4rleTI_11atlas_local6client21get_connection_string5tests40___mock_MockDocker_DockerInspectContainer19___inspect_containerNtB5_7Matcher7matches
FNDA:5,_RNvMs4_NtNtNtNtNtCscJhqz4rleTI_11atlas_local6client21get_connection_string5tests40___mock_MockDocker_DockerInspectContainer19___inspect_containerNtB5_6Common15verify_sequence
FNDA:5,_RNvMs4_NtNtNtNtNtCscJhqz4rleTI_11atlas_local6client21get_connection_string5tests40___mock_MockDocker_DockerInspectContainer19___inspect_containerNtB5_6Common16satisfy_sequence
FNDA:5,_RNvMs4_NtNtNtNtNtCscJhqz4rleTI_11atlas_local6client21get_connection_string5tests40___mock_MockDocker_DockerInspectContainer19___inspect_containerNtB5_6Common4call
FNDA:5,_RNvMs4_NtNtNtNtNtCscJhqz4rleTI_11atlas_local6client21get_connection_string5tests40___mock_MockDocker_DockerInspectContainer19___inspect_containerNtB5_6Common7is_done
FNDA:5,_RNvMs4_NtNtNtNtNtCscJhqz4rleTI_11atlas_local6client21get_connection_string5tests40___mock_MockDocker_DockerInspectContainer19___inspect_containerNtB5_6Common7matches
FNDA:5,_RNvMs6_NtNtNtNtNtCscJhqz4rleTI_11atlas_local6client21get_connection_string5tests40___mock_MockDocker_DockerInspectContainer19___inspect_containerNtB5_11Expectation4call
FNDA:5,_RNvMs6_NtNtNtNtNtCscJhqz4rleTI_11atlas_local6client21get_connection_string5tests40___mock_MockDocker_DockerInspectContainer19___inspect_containerNtB5_11Expectation7is_done
FNDA:5,_RNvMs6_NtNtNtNtNtCscJhqz4rleTI_11atlas_local6client21get_connection_string5tests40___mock_MockDocker_DockerInspectContainer19___inspect_containerNtB5_11Expectation7matches
FNDA:5,_RNvMs8_NtNtNtNtNtCscJhqz4rleTI_11atlas_local6client21get_connection_string5tests40___mock_MockDocker_DockerInspectContainer19___inspect_containerNtB5_12Expectations3new
FNDA:5,_RNvMs8_NtNtNtNtNtCscJhqz4rleTI_11atlas_local6client21get_connection_string5tests40___mock_MockDocker_DockerInspectContainer19___inspect_containerNtB5_12Expectations6expect
FNDA:5,_RNvMsa_NtNtNtNtNtCscJhqz4rleTI_11atlas_local6client21get_connection_string5tests40___mock_MockDocker_DockerInspectContainer19___inspect_containerNtB5_12Expectations4call
FNDA:5,_RNvXs1_NtNtNtNtNtCscJhqz4rleTI_11atlas_local6client21get_connection_string5tests40___mock_MockDocker_DockerInspectContainer19___inspect_containerNtB5_7MatcherNtNtCsaNl6UpbT7bw_4core7default7Default7default
FNDA:5,_RNvXs2_NtNtNtNtNtCscJhqz4rleTI_11atlas_local6client21get_connection_string5tests40___mock_MockDocker_DockerInspectContainer19___inspect_containerNtB5_7MatcherNtNtCsaNl6UpbT7bw_4core3fmt7Display3fmt
FNDA:5,_RNvXs3_NtNtNtNtNtCscJhqz4rleTI_11atlas_local6client21get_connection_string5tests40___mock_MockDocker_DockerInspectContainer19___inspect_containerNtB5_6CommonNtNtCsaNl6UpbT7bw_4core7default7Default7default
FNDA:5,_RNvXs7_NtNtNtNtNtCscJhqz4rleTI_11atlas_local6client21get_connection_string5tests40___mock_MockDocker_DockerInspectContainer19___inspect_containerNtB5_11ExpectationNtNtCsaNl6UpbT7bw_4core7default7Default7default
FNDA:5,_RNvXs9_NtNtNtNtNtCscJhqz4rleTI_11atlas_local6client21get_connection_string5tests40___mock_MockDocker_DockerInspectContainer19___inspect_containerNtB5_12ExpectationsNtNtCsaNl6UpbT7bw_4core7default7Default7default
FNDA:5,_RNvXs_NtNtNtNtNtCscJhqz4rleTI_11atlas_local6client21get_connection_string5tests40___mock_MockDocker_DockerInspectContainer19___inspect_containerNtB4_5RfuncNtNtCsaNl6UpbT7bw_4core7default7Default7default
FNF:25
FNH:24
DA:24,5
DA:25,5
DA:26,5
DA:27,5
DA:29,5
DA:32,4
DA:33,3
DA:34,1
DA:36,4
DA:37,4
DA:38,4
DA:40,3
DA:41,3
DA:42,3
DA:43,3
DA:44,3
DA:47,3
DA:50,3
DA:51,3
DA:52,3
DA:53,3
DA:54,1
DA:56,3
DA:57,3
DA:60,3
DA:61,3
DA:62,3
DA:63,3
DA:64,1
DA:66,3
DA:67,3
DA:70,3
DA:71,3
DA:73,3
DA:74,5
DA:78,3
DA:79,3
DA:80,3
DA:81,3
DA:82,3
DA:83,3
DA:84,3
DA:85,2
DA:86,2
DA:88,1
DA:91,3
DA:92,3
DA:122,5
DA:123,5
DA:124,5
DA:130,0
DA:131,0
DA:132,0
DA:135,180
DA:138,1
DA:140,1
DA:143,1
DA:144,1
DA:145,1
DA:146,1
DA:147,1
DA:148,1
DA:149,1
DA:150,1
DA:152,1
DA:153,1
DA:156,1
DA:159,1
DA:160,1
DA:161,1
DA:162,1
DA:163,1
DA:164,1
DA:167,1
DA:169,1
DA:172,1
DA:173,1
DA:174,1
DA:175,1
DA:176,1
DA:177,1
DA:178,1
DA:179,1
DA:181,1
DA:182,1
DA:185,1
DA:188,1
DA:189,1
DA:190,1
DA:191,1
DA:192,1
DA:193,1
DA:196,1
DA:198,1
DA:201,1
DA:202,1
DA:203,1
DA:204,1
DA:205,1
DA:206,1
DA:207,1
DA:208,1
DA:209,1
DA:210,1
DA:211,1
DA:212,1
DA:213,1
DA:215,1
DA:216,1
DA:219,1
DA:222,1
DA:223,1
DA:224,1
DA:225,1
DA:226,1
DA:227,1
DA:230,1
DA:232,1
DA:233,1
DA:234,1
DA:235,1
DA:236,1
DA:237,1
DA:238,1
DA:239,1
DA:240,1
DA:241,1
DA:242,1
DA:243,1
DA:244,1
DA:245,1
DA:246,1
DA:247,1
DA:248,1
DA:249,1
DA:250,1
DA:251,1
DA:252,1
DA:253,1
DA:254,1
DA:257,1
DA:258,1
DA:259,1
DA:260,1
DA:261,1
DA:262,1
DA:263,1
DA:264,1
DA:266,1
DA:267,1
DA:270,1
DA:273,1
DA:274,1
DA:275,1
DA:276,1
DA:277,1
DA:278,1
DA:281,1
DA:283,1
DA:286,1
DA:287,1
DA:288,1
DA:289,1
DA:290,1
DA:291,1
DA:292,1
DA:293,1
DA:295,1
DA:297,1
DA:300,1
DA:303,1
DA:304,1
DA:305,1
DA:306,1
DA:307,1
DA:308,1
BRF:0
BRH:0
LF:197
LH:194
end_of_record
SF:/Users/jeroen.vervaeke/git/github.com/mongodb/atlas-local-lib/src/client/get_deployment.rs
FN:96,_RNCNCNvNtNtNtCscJhqz4rleTI_11atlas_local6client14get_deployment5testss_19test_get_deployment00Bb_
FN:185,_RNCNCNvNtNtNtCscJhqz4rleTI_11atlas_local6client14get_deployment5testss_41test_get_deployment_into_deployment_error00Bb_
FN:143,_RNCNCNvNtNtNtCscJhqz4rleTI_11atlas_local6client14get_deployment5testss_43test_get_deployment_container_inspect_error00Bb_
FN:66,_RNCNvNtNtNtCscJhqz4rleTI_11atlas_local6client14get_deployment5testss_19test_get_deployment0B9_
FN:164,_RNCNvNtNtNtCscJhqz4rleTI_11atlas_local6client14get_deployment5testss_41test_get_deployment_into_deployment_error0B9_
FN:131,_RNCNvNtNtNtCscJhqz4rleTI_11atlas_local6client14get_deployment5testss_43test_get_deployment_container_inspect_error0B9_
FN:58,_RNCNvXs2_NtNtNtCscJhqz4rleTI_11atlas_local6client14get_deployment5testsNtB7_10MockDockerNtNtBd_6docker22DockerInspectContainer17inspect_container0Bd_
FN:63,_RINvMs4_NtNtNtNtNtCscJhqz4rleTI_11atlas_local6client14get_deployment5tests40___mock_MockDocker_DockerInspectContainer19___inspect_containerNtB6_6Common4withINtNtCsaS4gknD0Sqc_10predicates3ord11EqPredicateReEIB2v_INtNtCsaNl6UpbT7bw_4core6option6OptionNtNtCsiAmkw3NBFjt_13bollard_stubs16query_parameters23InspectContainerOptionsEEEBg_
FN:63,_RINvMs4_NtNtNtNtNtCscJhqz4rleTI_11atlas_local6client14get_deployment5tests40___mock_MockDocker_DockerInspectContainer19___inspect_containerNtB6_6Common5timesjEBg_
FN:63,_RINvMs6_NtNtNtNtNtCscJhqz4rleTI_11atlas_local6client14get_deployment5tests40___mock_MockDocker_DockerInspectContainer19___inspect_containerNtB6_11Expectation4withINtNtCsaS4gknD0Sqc_10predicates3ord11EqPredicateReEIB2B_INtNtCsaNl6UpbT7bw_4core6option6OptionNtNtCsiAmkw3NBFjt_13bollard_stubs16query_parameters23InspectContainerOptionsEEEBg_
FN:63,_RINvMs6_NtNtNtNtNtCscJhqz4rleTI_11atlas_local6client14get_deployment5tests40___mock_MockDocker_DockerInspectContainer19___inspect_containerNtB6_11Expectation5timesjEBg_
FN:63,_RINvMs6_NtNtNtNtNtCscJhqz4rleTI_11atlas_local6client14get_deployment5tests40___mock_MockDocker_DockerInspectContainer19___inspect_containerNtB6_11Expectation9returningNCNCNvBa_s_19test_get_deployment00EBg_
FN:63,_RINvMs6_NtNtNtNtNtCscJhqz4rleTI_11atlas_local6client14get_deployment5tests40___mock_MockDocker_DockerInspectContainer19___inspect_containerNtB6_11Expectation9returningNCNCNvBa_s_41test_get_deployment_into_deployment_error00EBg_
FN:63,_RINvMs6_NtNtNtNtNtCscJhqz4rleTI_11atlas_local6client14get_deployment5tests40___mock_MockDocker_DockerInspectContainer19___inspect_containerNtB6_11Expectation9returningNCNCNvBa_s_43test_get_deployment_container_inspect_error00EBg_
FN:63,_RNCNvMs0_NtNtNtNtNtCscJhqz4rleTI_11atlas_local6client14get_deployment5tests40___mock_MockDocker_DockerInspectContainer19___inspect_containerNtB7_7Matcher7matches0Bh_
FN:63,_RNCNvMsa_NtNtNtNtNtCscJhqz4rleTI_11atlas_local6client14get_deployment5tests40___mock_MockDocker_DockerInspectContainer19___inspect_containerNtB7_12Expectations4call0Bh_
FN:63,_RNCNvMsa_NtNtNtNtNtCscJhqz4rleTI_11atlas_local6client14get_deployment5tests40___mock_MockDocker_DockerInspectContainer19___inspect_containerNtB7_12Expectations4calls_0Bh_
FN:23,_RNvMNtNtCscJhqz4rleTI_11atlas_local6client14get_deploymentINtB4_6ClientNtNtB2_5tests10MockDockerE14get_deploymentB6_
FN:23,_RNvMNtNtCscJhqz4rleTI_11atlas_local6client14get_deploymentINtB4_6ClientNtNtNtB4_16list_deployments5tests10MockDockerE14get_deploymentB6_
FN:23,_RNvMNtNtCscJhqz4rleTI_11atlas_local6client14get_deploymentINtB4_6ClientNtNtNtB4_17create_deployment5tests10MockDockerE14get_deploymentB6_
FN:23,_RNvMNtNtCscJhqz4rleTI_11atlas_local6client14get_deploymentINtB4_6ClientNtNtNtB4_17delete_deployment5tests10MockDockerE14get_deploymentB6_
FN:23,_RNvMNtNtCscJhqz4rleTI_11atlas_local6client14get_deploymentINtB4_6ClientNtNtNtB4_17get_deployment_id5tests10MockDockerE14get_deploymentB6_
FN:23,_RNvMNtNtCscJhqz4rleTI_11atlas_local6client14get_deploymentINtB4_6ClientNtNtNtB4_21get_connection_string5tests10MockDockerE14get_deploymentB6_
FN:63,_RNvXs5_NtNtNtNtNtCscJhqz4rleTI_11atlas_local6client14get_deployment5tests40___mock_MockDocker_DockerInspectContainer19___inspect_containerNtB5_6CommonNtNtNtCsaNl6UpbT7bw_4core3ops4drop4Drop4drop
FN:63,_RINvMs4_NtNtNtNtNtCscJhqz4rleTI_11atlas_local6client14get_deployment5tests40___mock_MockDocker_DockerInspectContainer19___inspect_containerNtB6_6Common5withfpEBg_
FN:63,_RINvMs4_NtNtNtNtNtCscJhqz4rleTI_11atlas_local6client14get_deployment5tests40___mock_MockDocker_DockerInspectContainer19___inspect_containerNtB6_6Common8withf_stpEBg_
FN:63,_RINvMs6_NtNtNtNtNtCscJhqz4rleTI_11atlas_local6client14get_deployment5tests40___mock_MockDocker_DockerInspectContainer19___inspect_containerNtB6_11Expectation11return_oncepEBg_
FN:63,_RINvMs6_NtNtNtNtNtCscJhqz4rleTI_11atlas_local6client14get_deployment5tests40___mock_MockDocker_DockerInspectContainer19___inspect_containerNtB6_11Expectation12return_constpEBg_
FN:63,_RINvMs6_NtNtNtNtNtCscJhqz4rleTI_11atlas_local6client14get_deployment5tests40___mock_MockDocker_DockerInspectContainer19___inspect_containerNtB6_11Expectation12returning_stpEBg_
FN:63,_RINvMs6_NtNtNtNtNtCscJhqz4rleTI_11atlas_local6client14get_deployment5tests40___mock_MockDocker_DockerInspectContainer19___inspect_containerNtB6_11Expectation14return_once_stpEBg_
FN:63,_RINvMs6_NtNtNtNtNtCscJhqz4rleTI_11atlas_local6client14get_deployment5tests40___mock_MockDocker_DockerInspectContainer19___inspect_containerNtB6_11Expectation15return_const_stpEBg_
FN:63,_RINvMs6_NtNtNtNtNtCscJhqz4rleTI_11atlas_local6client14get_deployment5tests40___mock_MockDocker_DockerInspectContainer19___inspect_containerNtB6_11Expectation5withfpEBg_
FN:63,_RINvMs6_NtNtNtNtNtCscJhqz4rleTI_11atlas_local6client14get_deployment5tests40___mock_MockDocker_DockerInspectContainer19___inspect_containerNtB6_11Expectation8withf_stpEBg_
FN:63,_RNCINvMs6_NtNtNtNtNtCscJhqz4rleTI_11atlas_local6client14get_deployment5tests40___mock_MockDocker_DockerInspectContainer19___inspect_containerNtB8_11Expectation12return_constpE0Bi_
FN:63,_RNCINvMs6_NtNtNtNtNtCscJhqz4rleTI_11atlas_local6client14get_deployment5tests40___mock_MockDocker_DockerInspectContainer19___inspect_containerNtB8_11Expectation15return_const_stpE0Bi_
FN:63,_RNvMs0_NtNtNtCscJhqz4rleTI_11atlas_local6client14get_deployment5testsNtB5_33MockDocker_DockerInspectContainer10checkpoint
FN:63,_RNvMs1_NtNtNtCscJhqz4rleTI_11atlas_local6client14get_deployment5testsNtB5_10MockDocker10checkpoint
FN:63,_RNvMs4_NtNtNtNtNtCscJhqz4rleTI_11atlas_local6client14get_deployment5tests40___mock_MockDocker_DockerInspectContainer19___inspect_containerNtB5_6Common11in_sequence
FN:63,_RNvMs4_NtNtNtNtNtCscJhqz4rleTI_11atlas_local6client14get_deployment5tests40___mock_MockDocker_DockerInspectContainer19___inspect_containerNtB5_6Common5never
FN:63,_RNvMs6_NtNtNtNtNtCscJhqz4rleTI_11atlas_local6client14get_deployment5tests40___mock_MockDocker_DockerInspectContainer19___inspect_containerNtB5_11Expectation11in_sequence
FN:63,_RNvMs6_NtNtNtNtNtCscJhqz4rleTI_11atlas_local6client14get_deployment5tests40___mock_MockDocker_DockerInspectContainer19___inspect_containerNtB5_11Expectation3new
FN:63,_RNvMs6_NtNtNtNtNtCscJhqz4rleTI_11atlas_local6client14get_deployment5tests40___mock_MockDocker_DockerInspectContainer19___inspect_containerNtB5_11Expectation4once
FN:63,_RNvMs6_NtNtNtNtNtCscJhqz4rleTI_11atlas_local6client14get_deployment5tests40___mock_MockDocker_DockerInspectContainer19___inspect_containerNtB5_11Expectation5never
FN:63,_RNvMs8_NtNtNtNtNtCscJhqz4rleTI_11atlas_local6client14get_deployment5tests40___mock_MockDocker_DockerInspectContainer19___inspect_containerNtB5_12Expectations10checkpoint
FN:26,_RNCNvMNtNtCscJhqz4rleTI_11atlas_local6client14get_deploymentINtB6_6ClientNtNtB4_5tests10MockDockerE14get_deployment0B8_
FN:26,_RNCNvMNtNtCscJhqz4rleTI_11atlas_local6client14get_deploymentINtB6_6ClientNtNtNtB6_16list_deployments5tests10MockDockerE14get_deployment0B8_
FN:26,_RNCNvMNtNtCscJhqz4rleTI_11atlas_local6client14get_deploymentINtB6_6ClientNtNtNtB6_17create_deployment5tests10MockDockerE14get_deployment0B8_
FN:26,_RNCNvMNtNtCscJhqz4rleTI_11atlas_local6client14get_deploymentINtB6_6ClientNtNtNtB6_17delete_deployment5tests10MockDockerE14get_deployment0B8_
FN:26,_RNCNvMNtNtCscJhqz4rleTI_11atlas_local6client14get_deploymentINtB6_6ClientNtNtNtB6_17get_deployment_id5tests10MockDockerE14get_deployment0B8_
FN:26,_RNCNvMNtNtCscJhqz4rleTI_11atlas_local6client14get_deploymentINtB6_6ClientNtNtNtB6_21get_connection_string5tests10MockDockerE14get_deployment0B8_
FN:63,_RNvMNtNtNtNtNtCscJhqz4rleTI_11atlas_local6client14get_deployment5tests40___mock_MockDocker_DockerInspectContainer19___inspect_containerNtB2_5Rfunc8call_mut
FN:63,_RNvMs0_NtNtNtNtNtCscJhqz4rleTI_11atlas_local6client14get_deployment5tests40___mock_MockDocker_DockerInspectContainer19___inspect_containerNtB5_7Matcher7matches
FN:63,_RNvMs4_NtNtNtNtNtCscJhqz4rleTI_11atlas_local6client14get_deployment5tests40___mock_MockDocker_DockerInspectContainer19___inspect_containerNtB5_6Common15verify_sequence
FN:63,_RNvMs4_NtNtNtNtNtCscJhqz4rleTI_11atlas_local6client14get_deployment5tests40___mock_MockDocker_DockerInspectContainer19___inspect_containerNtB5_6Common16satisfy_sequence
FN:63,_RNvMs4_NtNtNtNtNtCscJhqz4rleTI_11atlas_local6client14get_deployment5tests40___mock_MockDocker_DockerInspectContainer19___inspect_containerNtB5_6Common4call
FN:63,_RNvMs4_NtNtNtNtNtCscJhqz4rleTI_11atlas_local6client14get_deployment5tests40___mock_MockDocker_DockerInspectContainer19___inspect_containerNtB5_6Common7is_done
FN:63,_RNvMs4_NtNtNtNtNtCscJhqz4rleTI_11atlas_local6client14get_deployment5tests40___mock_MockDocker_DockerInspectContainer19___inspect_containerNtB5_6Common7matches
FN:63,_RNvMs6_NtNtNtNtNtCscJhqz4rleTI_11atlas_local6client14get_deployment5tests40___mock_MockDocker_DockerInspectContainer19___inspect_containerNtB5_11Expectation4call
FN:63,_RNvMs6_NtNtNtNtNtCscJhqz4rleTI_11atlas_local6client14get_deployment5tests40___mock_MockDocker_DockerInspectContainer19___inspect_containerNtB5_11Expectation7is_done
FN:63,_RNvMs6_NtNtNtNtNtCscJhqz4rleTI_11atlas_local6client14get_deployment5tests40___mock_MockDocker_DockerInspectContainer19___inspect_containerNtB5_11Expectation7matches
FN:63,_RNvMs8_NtNtNtNtNtCscJhqz4rleTI_11atlas_local6client14get_deployment5tests40___mock_MockDocker_DockerInspectContainer19___inspect_containerNtB5_12Expectations3new
FN:63,_RNvMs8_NtNtNtNtNtCscJhqz4rleTI_11atlas_local6client14get_deployment5tests40___mock_MockDocker_DockerInspectContainer19___inspect_containerNtB5_12Expectations6expect
FN:63,_RNvMsa_NtNtNtNtNtCscJhqz4rleTI_11atlas_local6client14get_deployment5tests40___mock_MockDocker_DockerInspectContainer19___inspect_containerNtB5_12Expectations4call
FN:63,_RNvXs1_NtNtNtNtNtCscJhqz4rleTI_11atlas_local6client14get_deployment5tests40___mock_MockDocker_DockerInspectContainer19___inspect_containerNtB5_7MatcherNtNtCsaNl6UpbT7bw_4core7default7Default7default
FN:63,_RNvXs2_NtNtNtNtNtCscJhqz4rleTI_11atlas_local6client14get_deployment5tests40___mock_MockDocker_DockerInspectContainer19___inspect_containerNtB5_7MatcherNtNtCsaNl6UpbT7bw_4core3fmt7Display3fmt
FN:63,_RNvXs3_NtNtNtNtNtCscJhqz4rleTI_11atlas_local6client14get_deployment5tests40___mock_MockDocker_DockerInspectContainer19___inspect_containerNtB5_6CommonNtNtCsaNl6UpbT7bw_4core7default7Default7default
FN:63,_RNvXs7_NtNtNtNtNtCscJhqz4rleTI_11atlas_local6client14get_deployment5tests40___mock_MockDocker_DockerInspectContainer19___inspect_containerNtB5_11ExpectationNtNtCsaNl6UpbT7bw_4core7default7Default7default
FN:63,_RNvXs9_NtNtNtNtNtCscJhqz4rleTI_11atlas_local6client14get_deployment5tests40___mock_MockDocker_DockerInspectContainer19___inspect_containerNtB5_12ExpectationsNtNtCsaNl6UpbT7bw_4core7default7Default7default
FN:63,_RNvXs_NtNtNtNtNtCscJhqz4rleTI_11atlas_local6client14get_deployment5tests40___mock_MockDocker_DockerInspectContainer19___inspect_containerNtB4_5RfuncNtNtCsaNl6UpbT7bw_4core7default7Default7default
FN:63,_RNvMs1_NtNtNtCscJhqz4rleTI_11atlas_local6client14get_deployment5testsNtB5_10MockDocker3new
FN:63,_RNvMs3_NtNtNtCscJhqz4rleTI_11atlas_local6client14get_deployment5testsNtB5_10MockDocker24expect_inspect_container
FN:66,_RNvNtNtNtCscJhqz4rleTI_11atlas_local6client14get_deployment5testss_19test_get_deployment
FN:164,_RNvNtNtNtCscJhqz4rleTI_11atlas_local6client14get_deployment5testss_41test_get_deployment_into_deployment_error
FN:131,_RNvNtNtNtCscJhqz4rleTI_11atlas_local6client14get_deployment5testss_43test_get_deployment_container_inspect_error
FN:63,_RNvXNtNtNtCscJhqz4rleTI_11atlas_local6client14get_deployment5testsNtB2_10MockDockerNtNtCsaNl6UpbT7bw_4core7default7Default7default
FN:63,_RNvXs_NtNtNtCscJhqz4rleTI_11atlas_local6client14get_deployment5testsNtB4_33MockDocker_DockerInspectContainerNtNtCsaNl6UpbT7bw_4core7default7Default7default
FNDA:1,_RNCNCNvNtNtNtCscJhqz4rleTI_11atlas_local6client14get_deployment5testss_19test_get_deployment00Bb_
FNDA:1,_RNCNCNvNtNtNtCscJhqz4rleTI_11atlas_local6client14get_deployment5testss_41test_get_deployment_into_deployment_error00Bb_
FNDA:1,_RNCNCNvNtNtNtCscJhqz4rleTI_11atlas_local6client14get_deployment5testss_43test_get_deployment_container_inspect_error00Bb_
FNDA:1,_RNCNvNtNtNtCscJhqz4rleTI_11atlas_local6client14get_deployment5testss_19test_get_deployment0B9_
FNDA:1,_RNCNvNtNtNtCscJhqz4rleTI_11atlas_local6client14get_deployment5testss_41test_get_deployment_into_deployment_error0B9_
FNDA:1,_RNCNvNtNtNtCscJhqz4rleTI_11atlas_local6client14get_deployment5testss_43test_get_deployment_container_inspect_error0B9_
FNDA:3,_RNCNvXs2_NtNtNtCscJhqz4rleTI_11atlas_local6client14get_deployment5testsNtB7_10MockDockerNtNtBd_6docker22DockerInspectContainer17inspect_container0Bd_
FNDA:3,_RINvMs4_NtNtNtNtNtCscJhqz4rleTI_11atlas_local6client14get_deployment5tests40___mock_MockDocker_DockerInspectContainer19___inspect_containerNtB6_6Common4withINtNtCsaS4gknD0Sqc_10predicates3ord11EqPredicateReEIB2v_INtNtCsaNl6UpbT7bw_4core6option6OptionNtNtCsiAmkw3NBFjt_13bollard_stubs16query_parameters23InspectContainerOptionsEEEBg_
FNDA:3,_RINvMs4_NtNtNtNtNtCscJhqz4rleTI_11atlas_local6client14get_deployment5tests40___mock_MockDocker_DockerInspectContainer19___inspect_containerNtB6_6Common5timesjEBg_
FNDA:3,_RINvMs6_NtNtNtNtNtCscJhqz4rleTI_11atlas_local6client14get_deployment5tests40___mock_MockDocker_DockerInspectContainer19___inspect_containerNtB6_11Expectation4withINtNtCsaS4gknD0Sqc_10predicates3ord11EqPredicateReEIB2B_INtNtCsaNl6UpbT7bw_4core6option6OptionNtNtCsiAmkw3NBFjt_13bollard_stubs16query_parameters23InspectContainerOptionsEEEBg_
FNDA:3,_RINvMs6_NtNtNtNtNtCscJhqz4rleTI_11atlas_local6client14get_deployment5tests40___mock_MockDocker_DockerInspectContainer19___inspect_containerNtB6_11Expectation5timesjEBg_
FNDA:1,_RINvMs6_NtNtNtNtNtCscJhqz4rleTI_11atlas_local6client14get_deployment5tests40___mock_MockDocker_DockerInspectContainer19___inspect_containerNtB6_11Expectation9returningNCNCNvBa_s_19test_get_deployment00EBg_
FNDA:1,_RINvMs6_NtNtNtNtNtCscJhqz4rleTI_11atlas_local6client14get_deployment5tests40___mock_MockDocker_DockerInspectContainer19___inspect_containerNtB6_11Expectation9returningNCNCNvBa_s_41test_get_deployment_into_deployment_error00EBg_
FNDA:1,_RINvMs6_NtNtNtNtNtCscJhqz4rleTI_11atlas_local6client14get_deployment5tests40___mock_MockDocker_DockerInspectContainer19___inspect_containerNtB6_11Expectation9returningNCNCNvBa_s_43test_get_deployment_container_inspect_error00EBg_
FNDA:6,_RNCNvMs0_NtNtNtNtNtCscJhqz4rleTI_11atlas_local6client14get_deployment5tests40___mock_MockDocker_DockerInspectContainer19___inspect_containerNtB7_7Matcher7matches0Bh_
FNDA:3,_RNCNvMsa_NtNtNtNtNtCscJhqz4rleTI_11atlas_local6client14get_deployment5tests40___mock_MockDocker_DockerInspectContainer19___inspect_containerNtB7_12Expectations4call0Bh_
FNDA:3,_RNCNvMsa_NtNtNtNtNtCscJhqz4rleTI_11atlas_local6client14get_deployment5tests40___mock_MockDocker_DockerInspectContainer19___inspect_containerNtB7_12Expectations4calls_0Bh_
FNDA:3,_RNvMNtNtCscJhqz4rleTI_11atlas_local6client14get_deploymentINtB4_6ClientNtNtB2_5tests10MockDockerE14get_deploymentB6_
FNDA:4,_RNvMNtNtCscJhqz4rleTI_11atlas_local6client14get_deploymentINtB4_6ClientNtNtNtB4_16list_deployments5tests10MockDockerE14get_deploymentB6_
FNDA:3,_RNvMNtNtCscJhqz4rleTI_11atlas_local6client14get_deploymentINtB4_6ClientNtNtNtB4_17create_deployment5tests10MockDockerE14get_deploymentB6_
FNDA:4,_RNvMNtNtCscJhqz4rleTI_11atlas_local6client14get_deploymentINtB4_6ClientNtNtNtB4_17delete_deployment5tests10MockDockerE14get_deploymentB6_
FNDA:12,_RNvMNtNtCscJhqz4rleTI_11atlas_local6client14get_deploymentINtB4_6ClientNtNtNtB4_17get_deployment_id5tests10MockDockerE14get_deploymentB6_
FNDA:5,_RNvMNtNtCscJhqz4rleTI_11atlas_local6client14get_deploymentINtB4_6ClientNtNtNtB4_21get_connection_string5tests10MockDockerE14get_deploymentB6_
FNDA:3,_RNvXs5_NtNtNtNtNtCscJhqz4rleTI_11atlas_local6client14get_deployment5tests40___mock_MockDocker_DockerInspectContainer19___inspect_containerNtB5_6CommonNtNtNtCsaNl6UpbT7bw_4core3ops4drop4Drop4drop
FNDA:0,_RINvMs4_NtNtNtNtNtCscJhqz4rleTI_11atlas_local6client14get_deployment5tests40___mock_MockDocker_DockerInspectContainer19___inspect_containerNtB6_6Common5withfpEBg_
FNDA:0,_RINvMs4_NtNtNtNtNtCscJhqz4rleTI_11atlas_local6client14get_deployment5tests40___mock_MockDocker_DockerInspectContainer19___inspect_containerNtB6_6Common8withf_stpEBg_
FNDA:0,_RINvMs6_NtNtNtNtNtCscJhqz4rleTI_11atlas_local6client14get_deployment5tests40___mock_MockDocker_DockerInspectContainer19___inspect_containerNtB6_11Expectation11return_oncepEBg_
FNDA:0,_RINvMs6_NtNtNtNtNtCscJhqz4rleTI_11atlas_local6client14get_deployment5tests40___mock_MockDocker_DockerInspectContainer19___inspect_containerNtB6_11Expectation12return_constpEBg_
FNDA:0,_RINvMs6_NtNtNtNtNtCscJhqz4rleTI_11atlas_local6client14get_deployment5tests40___mock_MockDocker_DockerInspectContainer19___inspect_containerNtB6_11Expectation12returning_stpEBg_
FNDA:0,_RINvMs6_NtNtNtNtNtCscJhqz4rleTI_11atlas_local6client14get_deployment5tests40___mock_MockDocker_DockerInspectContainer19___inspect_containerNtB6_11Expectation14return_once_stpEBg_
FNDA:0,_RINvMs6_NtNtNtNtNtCscJhqz4rleTI_11atlas_local6client14get_deployment5tests40___mock_MockDocker_DockerInspectContainer19___inspect_containerNtB6_11Expectation15return_const_stpEBg_
FNDA:0,_RINvMs6_NtNtNtNtNtCscJhqz4rleTI_11atlas_local6client14get_deployment5tests40___mock_MockDocker_DockerInspectContainer19___inspect_containerNtB6_11Expectation5withfpEBg_
FNDA:0,_RINvMs6_NtNtNtNtNtCscJhqz4rleTI_11atlas_local6client14get_deployment5tests40___mock_MockDocker_DockerInspectContainer19___inspect_containerNtB6_11Expectation8withf_stpEBg_
FNDA:0,_RNCINvMs6_NtNtNtNtNtCscJhqz4rleTI_11atlas_local6client14get_deployment5tests40___mock_MockDocker_DockerInspectContainer19___inspect_containerNtB8_11Expectation12return_constpE0Bi_
FNDA:0,_RNCINvMs6_NtNtNtNtNtCscJhqz4rleTI_11atlas_local6client14get_deployment5tests40___mock_MockDocker_DockerInspectContainer19___inspect_containerNtB8_11Expectation15return_const_stpE0Bi_
FNDA:0,_RNvMs0_NtNtNtCscJhqz4rleTI_11atlas_local6client14get_deployment5testsNtB5_33MockDocker_DockerInspectContainer10checkpoint
FNDA:0,_RNvMs1_NtNtNtCscJhqz4rleTI_11atlas_local6client14get_deployment5testsNtB5_10MockDocker10checkpoint
FNDA:0,_RNvMs4_NtNtNtNtNtCscJhqz4rleTI_11atlas_local6client14get_deployment5tests40___mock_MockDocker_DockerInspectContainer19___inspect_containerNtB5_6Common11in_sequence
FNDA:0,_RNvMs4_NtNtNtNtNtCscJhqz4rleTI_11atlas_local6client14get_deployment5tests40___mock_MockDocker_DockerInspectContainer19___inspect_containerNtB5_6Common5never
FNDA:0,_RNvMs6_NtNtNtNtNtCscJhqz4rleTI_11atlas_local6client14get_deployment5tests40___mock_MockDocker_DockerInspectContainer19___inspect_containerNtB5_11Expectation11in_sequence
FNDA:0,_RNvMs6_NtNtNtNtNtCscJhqz4rleTI_11atlas_local6client14get_deployment5tests40___mock_MockDocker_DockerInspectContainer19___inspect_containerNtB5_11Expectation3new
FNDA:0,_RNvMs6_NtNtNtNtNtCscJhqz4rleTI_11atlas_local6client14get_deployment5tests40___mock_MockDocker_DockerInspectContainer19___inspect_containerNtB5_11Expectation4once
FNDA:0,_RNvMs6_NtNtNtNtNtCscJhqz4rleTI_11atlas_local6client14get_deployment5tests40___mock_MockDocker_DockerInspectContainer19___inspect_containerNtB5_11Expectation5never
FNDA:0,_RNvMs8_NtNtNtNtNtCscJhqz4rleTI_11atlas_local6client14get_deployment5tests40___mock_MockDocker_DockerInspectContainer19___inspect_containerNtB5_12Expectations10checkpoint
FNDA:3,_RNCNvMNtNtCscJhqz4rleTI_11atlas_local6client14get_deploymentINtB6_6ClientNtNtB4_5tests10MockDockerE14get_deployment0B8_
FNDA:4,_RNCNvMNtNtCscJhqz4rleTI_11atlas_local6client14get_deploymentINtB6_6ClientNtNtNtB6_16list_deployments5tests10MockDockerE14get_deployment0B8_
FNDA:3,_RNCNvMNtNtCscJhqz4rleTI_11atlas_local6client14get_deploymentINtB6_6ClientNtNtNtB6_17create_deployment5tests10MockDockerE14get_deployment0B8_
FNDA:4,_RNCNvMNtNtCscJhqz4rleTI_11atlas_local6client14get_deploymentINtB6_6ClientNtNtNtB6_17delete_deployment5tests10MockDockerE14get_deployment0B8_
FNDA:12,_RNCNvMNtNtCscJhqz4rleTI_11atlas_local6client14get_deploymentINtB6_6ClientNtNtNtB6_17get_deployment_id5tests10MockDockerE14get_deployment0B8_
FNDA:5,_RNCNvMNtNtCscJhqz4rleTI_11atlas_local6client14get_deploymentINtB6_6ClientNtNtNtB6_21get_connection_string5tests10MockDockerE14get_deployment0B8_
FNDA:3,_RNvMNtNtNtNtNtCscJhqz4rleTI_11atlas_local6client14get_deployment5tests40___mock_MockDocker_DockerInspectContainer19___inspect_containerNtB2_5Rfunc8call_mut
FNDA:3,_RNvMs0_NtNtNtNtNtCscJhqz4rleTI_11atlas_local6client14get_deployment5tests40___mock_MockDocker_DockerInspectContainer19___inspect_containerNtB5_7Matcher7matches
FNDA:3,_RNvMs4_NtNtNtNtNtCscJhqz4rleTI_11atlas_local6client14get_deployment5tests40___mock_MockDocker_DockerInspectContainer19___inspect_containerNtB5_6Common15verify_sequence
FNDA:3,_RNvMs4_NtNtNtNtNtCscJhqz4rleTI_11atlas_local6client14get_deployment5tests40___mock_MockDocker_DockerInspectContainer19___inspect_containerNtB5_6Common16satisfy_sequence
FNDA:3,_RNvMs4_NtNtNtNtNtCscJhqz4rleTI_11atlas_local6client14get_deployment5tests40___mock_MockDocker_DockerInspectContainer19___inspect_containerNtB5_6Common4call
FNDA:3,_RNvMs4_NtNtNtNtNtCscJhqz4rleTI_11atlas_local6client14get_deployment5tests40___mock_MockDocker_DockerInspectContainer19___inspect_containerNtB5_6Common7is_done
FNDA:3,_RNvMs4_NtNtNtNtNtCscJhqz4rleTI_11atlas_local6client14get_deployment5tests40___mock_MockDocker_DockerInspectContainer19___inspect_containerNtB5_6Common7matches
FNDA:3,_RNvMs6_NtNtNtNtNtCscJhqz4rleTI_11atlas_local6client14get_deployment5tests40___mock_MockDocker_DockerInspectContainer19___inspect_containerNtB5_11Expectation4call
FNDA:3,_RNvMs6_NtNtNtNtNtCscJhqz4rleTI_11atlas_local6client14get_deployment5tests40___mock_MockDocker_DockerInspectContainer19___inspect_containerNtB5_11Expectation7is_done
FNDA:3,_RNvMs6_NtNtNtNtNtCscJhqz4rleTI_11atlas_local6client14get_deployment5tests40___mock_MockDocker_DockerInspectContainer19___inspect_containerNtB5_11Expectation7matches
FNDA:3,_RNvMs8_NtNtNtNtNtCscJhqz4rleTI_11atlas_local6client14get_deployment5tests40___mock_MockDocker_DockerInspectContainer19___inspect_containerNtB5_12Expectations3new
FNDA:3,_RNvMs8_NtNtNtNtNtCscJhqz4rleTI_11atlas_local6client14get_deployment5tests40___mock_MockDocker_DockerInspectContainer19___inspect_containerNtB5_12Expectations6expect
FNDA:3,_RNvMsa_NtNtNtNtNtCscJhqz4rleTI_11atlas_local6client14get_deployment5tests40___mock_MockDocker_DockerInspectContainer19___inspect_containerNtB5_12Expectations4call
FNDA:3,_RNvXs1_NtNtNtNtNtCscJhqz4rleTI_11atlas_local6client14get_deployment5tests40___mock_MockDocker_DockerInspectContainer19___inspect_containerNtB5_7MatcherNtNtCsaNl6UpbT7bw_4core7default7Default7default
FNDA:3,_RNvXs2_NtNtNtNtNtCscJhqz4rleTI_11atlas_local6client14get_deployment5tests40___mock_MockDocker_DockerInspectContainer19___inspect_containerNtB5_7MatcherNtNtCsaNl6UpbT7bw_4core3fmt7Display3fmt
FNDA:3,_RNvXs3_NtNtNtNtNtCscJhqz4rleTI_11atlas_local6client14get_deployment5tests40___mock_MockDocker_DockerInspectContainer19___inspect_containerNtB5_6CommonNtNtCsaNl6UpbT7bw_4core7default7Default7default
FNDA:3,_RNvXs7_NtNtNtNtNtCscJhqz4rleTI_11atlas_local6client14get_deployment5tests40___mock_MockDocker_DockerInspectContainer19___inspect_containerNtB5_11ExpectationNtNtCsaNl6UpbT7bw_4core7default7Default7default
FNDA:3,_RNvXs9_NtNtNtNtNtCscJhqz4rleTI_11atlas_local6client14get_deployment5tests40___mock_MockDocker_DockerInspectContainer19___inspect_containerNtB5_12ExpectationsNtNtCsaNl6UpbT7bw_4core7default7Default7default
FNDA:3,_RNvXs_NtNtNtNtNtCscJhqz4rleTI_11atlas_local6client14get_deployment5tests40___mock_MockDocker_DockerInspectContainer19___inspect_containerNtB4_5RfuncNtNtCsaNl6UpbT7bw_4core7default7Default7default
FNDA:3,_RNvMs1_NtNtNtCscJhqz4rleTI_11atlas_local6client14get_deployment5testsNtB5_10MockDocker3new
FNDA:3,_RNvMs3_NtNtNtCscJhqz4rleTI_11atlas_local6client14get_deployment5testsNtB5_10MockDocker24expect_inspect_container
FNDA:1,_RNvNtNtNtCscJhqz4rleTI_11atlas_local6client14get_deployment5testss_19test_get_deployment
FNDA:1,_RNvNtNtNtCscJhqz4rleTI_11atlas_local6client14get_deployment5testss_41test_get_deployment_into_deployment_error
FNDA:1,_RNvNtNtNtCscJhqz4rleTI_11atlas_local6client14get_deployment5testss_43test_get_deployment_container_inspect_error
FNDA:3,_RNvXNtNtNtCscJhqz4rleTI_11atlas_local6client14get_deployment5testsNtB2_10MockDockerNtNtCsaNl6UpbT7bw_4core7default7Default7default
FNDA:3,_RNvXs_NtNtNtCscJhqz4rleTI_11atlas_local6client14get_deployment5testsNtB4_33MockDocker_DockerInspectContainerNtNtCsaNl6UpbT7bw_4core7default7Default7default
FNF:13
FNH:13
DA:23,31
DA:24,31
DA:25,31
DA:26,31
DA:28,31
DA:29,31
DA:30,31
DA:31,31
DA:34,26
DA:35,31
DA:58,3
DA:59,3
DA:60,3
DA:63,99
DA:66,1
DA:68,1
DA:69,1
DA:70,1
DA:71,1
DA:72,1
DA:73,1
DA:74,1
DA:75,1
DA:76,1
DA:77,1
DA:78,1
DA:79,1
DA:80,1
DA:81,1
DA:82,1
DA:83,1
DA:84,1
DA:85,1
DA:86,1
DA:89,1
DA:90,1
DA:91,1
DA:92,1
DA:93,1
DA:94,1
DA:95,1
DA:96,1
DA:98,1
DA:101,1
DA:104,1
DA:106,1
DA:107,1
DA:108,1
DA:109,1
DA:110,1
DA:111,1
DA:112,1
DA:113,1
DA:114,1
DA:115,1
DA:116,1
DA:117,1
DA:118,1
DA:119,1
DA:120,1
DA:121,1
DA:122,1
DA:123,1
DA:124,1
DA:125,1
DA:126,1
DA:127,1
DA:128,1
DA:131,1
DA:133,1
DA:136,1
DA:137,1
DA:138,1
DA:139,1
DA:140,1
DA:141,1
DA:142,1
DA:143,1
DA:144,1
DA:145,1
DA:146,1
DA:147,1
DA:148,1
DA:150,1
DA:153,1
DA:156,1
DA:157,1
DA:158,1
DA:159,1
DA:160,1
DA:161,1
DA:164,1
DA:166,1
DA:167,1
DA:168,1
DA:169,1
DA:170,1
DA:171,1
DA:172,1
DA:173,1
DA:174,1
DA:175,1
DA:178,1
DA:179,1
DA:180,1
DA:181,1
DA:182,1
DA:183,1
DA:184,1
DA:185,1
DA:187,1
DA:190,1
DA:193,1
DA:194,1
DA:195,1
DA:196,1
DA:197,1
DA:198,1
BRF:0
BRH:0
LF:150
LH:150
end_of_record
SF:/Users/jeroen.vervaeke/git/github.com/mongodb/atlas-local-lib/src/client/get_deployment_id.rs
FN:33,_RNCNCNvMNtNtCscJhqz4rleTI_11atlas_local6client17get_deployment_idINtB8_6ClientNtNtB6_5tests10MockDockerE17get_deployment_id00Ba_
FN:43,_RNCNCNvMNtNtCscJhqz4rleTI_11atlas_local6client17get_deployment_idINtB8_6ClientNtNtB6_5tests10MockDockerE17get_deployment_id0s0_0Ba_
FN:44,_RNCNCNvMNtNtCscJhqz4rleTI_11atlas_local6client17get_deployment_idINtB8_6ClientNtNtB6_5tests10MockDockerE17get_deployment_id0s1_0Ba_
FN:34,_RNCNCNvMNtNtCscJhqz4rleTI_11atlas_local6client17get_deployment_idINtB8_6ClientNtNtB6_5tests10MockDockerE17get_deployment_id0s_0Ba_
FN:26,_RNCNvMNtNtCscJhqz4rleTI_11atlas_local6client17get_deployment_idINtB6_6ClientNtNtB4_5tests10MockDockerE17get_deployment_id0B8_
FN:633,_RNCNCNvNtNtNtCscJhqz4rleTI_11atlas_local6client17get_deployment_id5testss_35test_get_deployment_id_empty_stdout00Bb_
FN:648,_RNCNCNvNtNtNtCscJhqz4rleTI_11atlas_local6client17get_deployment_id5testss_35test_get_deployment_id_empty_stdout0s_0Bb_
FN:725,_RNCNCNvNtNtNtCscJhqz4rleTI_11atlas_local6client17get_deployment_id5testss_36test_get_deployment_id_password_only00Bb_
FN:741,_RNCNCNvNtNtNtCscJhqz4rleTI_11atlas_local6client17get_deployment_id5testss_36test_get_deployment_id_password_only0s_0Bb_
FN:678,_RNCNCNvNtNtNtCscJhqz4rleTI_11atlas_local6client17get_deployment_id5testss_36test_get_deployment_id_username_only00Bb_
FN:694,_RNCNCNvNtNtNtCscJhqz4rleTI_11atlas_local6client17get_deployment_id5testss_36test_get_deployment_id_username_only0s_0Bb_
FN:147,_RNCNCNvNtNtNtCscJhqz4rleTI_11atlas_local6client17get_deployment_id5testss_41test_get_deployment_id_happy_path_no_auth00Bb_
FN:163,_RNCNCNvNtNtNtCscJhqz4rleTI_11atlas_local6client17get_deployment_id5testss_41test_get_deployment_id_happy_path_no_auth0s_0Bb_
FN:199,_RNCNCNvNtNtNtCscJhqz4rleTI_11atlas_local6client17get_deployment_id5testss_42test_get_deployment_id_happy_path_env_auth00Bb_
FN:217,_RNCNCNvNtNtNtCscJhqz4rleTI_11atlas_local6client17get_deployment_id5testss_42test_get_deployment_id_happy_path_env_auth0s_0Bb_
FN:331,_RNCNCNvNtNtNtCscJhqz4rleTI_11atlas_local6client17get_deployment_id5testss_43test_get_deployment_id_get_deployment_error00Bb_
FN:253,_RNCNCNvNtNtNtCscJhqz4rleTI_11atlas_local6client17get_deployment_id5testss_43test_get_deployment_id_happy_path_file_auth00Bb_
FN:278,_RNCNCNvNtNtNtCscJhqz4rleTI_11atlas_local6client17get_deployment_id5testss_43test_get_deployment_id_happy_path_file_auth0s0_0Bb_
FN:301,_RNCNCNvNtNtNtCscJhqz4rleTI_11atlas_local6client17get_deployment_id5testss_43test_get_deployment_id_happy_path_file_auth0s1_0Bb_
FN:263,_RNCNCNvNtNtNtCscJhqz4rleTI_11atlas_local6client17get_deployment_id5testss_43test_get_deployment_id_happy_path_file_auth0s_0Bb_
FN:468,_RNCNCNvNtNtNtCscJhqz4rleTI_11atlas_local6client17get_deployment_id5testss_48test_get_deployment_id_run_mongosh_command_error00Bb_
FN:484,_RNCNCNvNtNtNtCscJhqz4rleTI_11atlas_local6client17get_deployment_id5testss_48test_get_deployment_id_run_mongosh_command_error0s_0Bb_
FN:423,_RNCNCNvNtNtNtCscJhqz4rleTI_11atlas_local6client17get_deployment_id5testss_49test_get_deployment_id_get_mongodb_password_error00Bb_
FN:433,_RNCNCNvNtNtNtCscJhqz4rleTI_11atlas_local6client17get_deployment_id5testss_49test_get_deployment_id_get_mongodb_password_error0s_0Bb_
FN:371,_RNCNCNvNtNtNtCscJhqz4rleTI_11atlas_local6client17get_deployment_id5testss_49test_get_deployment_id_get_mongodb_username_error00Bb_
FN:381,_RNCNCNvNtNtNtCscJhqz4rleTI_11atlas_local6client17get_deployment_id5testss_49test_get_deployment_id_get_mongodb_username_error0s_0Bb_
FN:520,_RNCNCNvNtNtNtCscJhqz4rleTI_11atlas_local6client17get_deployment_id5testss_60test_get_deployment_id_mixed_auth_env_username_file_password00Bb_
FN:553,_RNCNCNvNtNtNtCscJhqz4rleTI_11atlas_local6client17get_deployment_id5testss_60test_get_deployment_id_mixed_auth_env_username_file_password0s0_0Bb_
FN:530,_RNCNCNvNtNtNtCscJhqz4rleTI_11atlas_local6client17get_deployment_id5testss_60test_get_deployment_id_mixed_auth_env_username_file_password0s_0Bb_
FN:582,_RNCNCNvNtNtNtCscJhqz4rleTI_11atlas_local6client17get_deployment_id5testss_66test_get_deployment_id_all_run_command_in_container_error_variants00Bb_
FN:597,_RNCNCNvNtNtNtCscJhqz4rleTI_11atlas_local6client17get_deployment_id5testss_66test_get_deployment_id_all_run_command_in_container_error_variants0s_0Bb_
FN:624,_RNCNvNtNtNtCscJhqz4rleTI_11atlas_local6client17get_deployment_id5testss_35test_get_deployment_id_empty_stdout0B9_
FN:709,_RNCNvNtNtNtCscJhqz4rleTI_11atlas_local6client17get_deployment_id5testss_36test_get_deployment_id_password_only0B9_
FN:662,_RNCNvNtNtNtCscJhqz4rleTI_11atlas_local6client17get_deployment_id5testss_36test_get_deployment_id_username_only0B9_
FN:137,_RNCNvNtNtNtCscJhqz4rleTI_11atlas_local6client17get_deployment_id5testss_41test_get_deployment_id_happy_path_no_auth0B9_
FN:181,_RNCNvNtNtNtCscJhqz4rleTI_11atlas_local6client17get_deployment_id5testss_42test_get_deployment_id_happy_path_env_auth0B9_
FN:319,_RNCNvNtNtNtCscJhqz4rleTI_11atlas_local6client17get_deployment_id5testss_43test_get_deployment_id_get_deployment_error0B9_
FN:235,_RNCNvNtNtNtCscJhqz4rleTI_11atlas_local6client17get_deployment_id5testss_43test_get_deployment_id_happy_path_file_auth0B9_
FN:458,_RNCNvNtNtNtCscJhqz4rleTI_11atlas_local6client17get_deployment_id5testss_48test_get_deployment_id_run_mongosh_command_error0B9_
FN:406,_RNCNvNtNtNtCscJhqz4rleTI_11atlas_local6client17get_deployment_id5testss_49test_get_deployment_id_get_mongodb_password_error0B9_
FN:354,_RNCNvNtNtNtCscJhqz4rleTI_11atlas_local6client17get_deployment_id5testss_49test_get_deployment_id_get_mongodb_username_error0B9_
FN:502,_RNCNvNtNtNtCscJhqz4rleTI_11atlas_local6client17get_deployment_id5testss_60test_get_deployment_id_mixed_auth_env_username_file_password0B9_
FN:571,_RNCNvNtNtNtCscJhqz4rleTI_11atlas_local6client17get_deployment_id5testss_66test_get_deployment_id_all_run_command_in_container_error_variants0B9_
FN:99,_RNCNvXs4_NtNtNtCscJhqz4rleTI_11atlas_local6client17get_deployment_id5testsNtB7_10MockDockerNtNtBd_6docker22DockerInspectContainer17inspect_container0Bd_
FN:107,_RNCNvXs6_NtNtNtCscJhqz4rleTI_11atlas_local6client17get_deployment_id5testsNtB7_10MockDockerNtNtBd_6docker21RunCommandInContainer24run_command_in_container0Bd_
FN:112,_RNvMNtNtNtNtNtCscJhqz4rleTI_11atlas_local6client17get_deployment_id5tests39___mock_MockDocker_RunCommandInContainer26___run_command_in_containerNtB2_5Rfunc8call_mut
FN:112,_RNvMs0_NtNtNtNtNtCscJhqz4rleTI_11atlas_local6client17get_deployment_id5tests39___mock_MockDocker_RunCommandInContainer26___run_command_in_containerNtB5_7Matcher7matches
FN:112,_RNvMs4_NtNtNtNtNtCscJhqz4rleTI_11atlas_local6client17get_deployment_id5tests39___mock_MockDocker_RunCommandInContainer26___run_command_in_containerNtB5_6Common15verify_sequence
FN:112,_RNvMs4_NtNtNtNtNtCscJhqz4rleTI_11atlas_local6client17get_deployment_id5tests39___mock_MockDocker_RunCommandInContainer26___run_command_in_containerNtB5_6Common16satisfy_sequence
FN:112,_RNvMs4_NtNtNtNtNtCscJhqz4rleTI_11atlas_local6client17get_deployment_id5tests39___mock_MockDocker_RunCommandInContainer26___run_command_in_containerNtB5_6Common4call
FN:112,_RNvMs4_NtNtNtNtNtCscJhqz4rleTI_11atlas_local6client17get_deployment_id5tests39___mock_MockDocker_RunCommandInContainer26___run_command_in_containerNtB5_6Common7is_done
FN:112,_RNvMs4_NtNtNtNtNtCscJhqz4rleTI_11atlas_local6client17get_deployment_id5tests39___mock_MockDocker_RunCommandInContainer26___run_command_in_containerNtB5_6Common7matches
FN:112,_RNvMs6_NtNtNtNtNtCscJhqz4rleTI_11atlas_local6client17get_deployment_id5tests39___mock_MockDocker_RunCommandInContainer26___run_command_in_containerNtB5_11Expectation4call
FN:112,_RNvMs6_NtNtNtNtNtCscJhqz4rleTI_11atlas_local6client17get_deployment_id5tests39___mock_MockDocker_RunCommandInContainer26___run_command_in_containerNtB5_11Expectation7is_done
FN:112,_RNvMs6_NtNtNtNtNtCscJhqz4rleTI_11atlas_local6client17get_deployment_id5tests39___mock_MockDocker_RunCommandInContainer26___run_command_in_containerNtB5_11Expectation7matches
FN:112,_RNvMs8_NtNtNtNtNtCscJhqz4rleTI_11atlas_local6client17get_deployment_id5tests39___mock_MockDocker_RunCommandInContainer26___run_command_in_containerNtB5_12Expectations3new
FN:112,_RNvMs8_NtNtNtNtNtCscJhqz4rleTI_11atlas_local6client17get_deployment_id5tests39___mock_MockDocker_RunCommandInContainer26___run_command_in_containerNtB5_12Expectations6expect
FN:112,_RNvMsa_NtNtNtNtNtCscJhqz4rleTI_11atlas_local6client17get_deployment_id5tests39___mock_MockDocker_RunCommandInContainer26___run_command_in_containerNtB5_12Expectations4call
FN:112,_RNvXs1_NtNtNtNtNtCscJhqz4rleTI_11atlas_local6client17get_deployment_id5tests39___mock_MockDocker_RunCommandInContainer26___run_command_in_containerNtB5_7MatcherNtNtCsaNl6UpbT7bw_4core7default7Default7default
FN:112,_RNvXs2_NtNtNtNtNtCscJhqz4rleTI_11atlas_local6client17get_deployment_id5tests39___mock_MockDocker_RunCommandInContainer26___run_command_in_containerNtB5_7MatcherNtNtCsaNl6UpbT7bw_4core3fmt7Display3fmt
FN:112,_RNvXs3_NtNtNtNtNtCscJhqz4rleTI_11atlas_local6client17get_deployment_id5tests39___mock_MockDocker_RunCommandInContainer26___run_command_in_containerNtB5_6CommonNtNtCsaNl6UpbT7bw_4core7default7Default7default
FN:112,_RNvXs7_NtNtNtNtNtCscJhqz4rleTI_11atlas_local6client17get_deployment_id5tests39___mock_MockDocker_RunCommandInContainer26___run_command_in_containerNtB5_11ExpectationNtNtCsaNl6UpbT7bw_4core7default7Default7default
FN:112,_RNvXs9_NtNtNtNtNtCscJhqz4rleTI_11atlas_local6client17get_deployment_id5tests39___mock_MockDocker_RunCommandInContainer26___run_command_in_containerNtB5_12ExpectationsNtNtCsaNl6UpbT7bw_4core7default7Default7default
FN:112,_RNvXs_NtNtNtNtNtCscJhqz4rleTI_11atlas_local6client17get_deployment_id5tests39___mock_MockDocker_RunCommandInContainer26___run_command_in_containerNtB4_5RfuncNtNtCsaNl6UpbT7bw_4core7default7Default7default
FN:23,_RNvMNtNtCscJhqz4rleTI_11atlas_local6client17get_deployment_idINtB4_6ClientNtNtB2_5tests10MockDockerE17get_deployment_idB6_
FN:112,_RNvXs5_NtNtNtNtNtCscJhqz4rleTI_11atlas_local6client17get_deployment_id5tests39___mock_MockDocker_RunCommandInContainer26___run_command_in_containerNtB5_6CommonNtNtNtCsaNl6UpbT7bw_4core3ops4drop4Drop4drop
FN:112,_RNvXs5_NtNtNtNtNtCscJhqz4rleTI_11atlas_local6client17get_deployment_id5tests40___mock_MockDocker_DockerInspectContainer19___inspect_containerNtB5_6CommonNtNtNtCsaNl6UpbT7bw_4core3ops4drop4Drop4drop
FN:112,_RNvMs3_NtNtNtCscJhqz4rleTI_11atlas_local6client17get_deployment_id5testsNtB5_10MockDocker3new
FN:112,_RNvMs5_NtNtNtCscJhqz4rleTI_11atlas_local6client17get_deployment_id5testsNtB5_10MockDocker24expect_inspect_container
FN:112,_RNvMs7_NtNtNtCscJhqz4rleTI_11atlas_local6client17get_deployment_id5testsNtB5_10MockDocker31expect_run_command_in_container
FN:115,_RNvNtNtNtCscJhqz4rleTI_11atlas_local6client17get_deployment_id5tests38create_test_container_inspect_response
FN:624,_RNvNtNtNtCscJhqz4rleTI_11atlas_local6client17get_deployment_id5testss_35test_get_deployment_id_empty_stdout
FN:709,_RNvNtNtNtCscJhqz4rleTI_11atlas_local6client17get_deployment_id5testss_36test_get_deployment_id_password_only
FN:662,_RNvNtNtNtCscJhqz4rleTI_11atlas_local6client17get_deployment_id5testss_36test_get_deployment_id_username_only
FN:137,_RNvNtNtNtCscJhqz4rleTI_11atlas_local6client17get_deployment_id5testss_41test_get_deployment_id_happy_path_no_auth
FN:181,_RNvNtNtNtCscJhqz4rleTI_11atlas_local6client17get_deployment_id5testss_42test_get_deployment_id_happy_path_env_auth
FN:319,_RNvNtNtNtCscJhqz4rleTI_11atlas_local6client17get_deployment_id5testss_43test_get_deployment_id_get_deployment_error
FN:235,_RNvNtNtNtCscJhqz4rleTI_11atlas_local6client17get_deployment_id5testss_43test_get_deployment_id_happy_path_file_auth
FN:458,_RNvNtNtNtCscJhqz4rleTI_11atlas_local6client17get_deployment_id5testss_48test_get_deployment_id_run_mongosh_command_error
FN:406,_RNvNtNtNtCscJhqz4rleTI_11atlas_local6client17get_deployment_id5testss_49test_get_deployment_id_get_mongodb_password_error
FN:354,_RNvNtNtNtCscJhqz4rleTI_11atlas_local6client17get_deployment_id5testss_49test_get_deployment_id_get_mongodb_username_error
FN:502,_RNvNtNtNtCscJhqz4rleTI_11atlas_local6client17get_deployment_id5testss_60test_get_deployment_id_mixed_auth_env_username_file_password
FN:571,_RNvNtNtNtCscJhqz4rleTI_11atlas_local6client17get_deployment_id5testss_66test_get_deployment_id_all_run_command_in_container_error_variants
FN:112,_RNvXNtNtNtCscJhqz4rleTI_11atlas_local6client17get_deployment_id5testsNtB2_10MockDockerNtNtCsaNl6UpbT7bw_4core7default7Default7default
FN:112,_RNvXs1_NtNtNtCscJhqz4rleTI_11atlas_local6client17get_deployment_id5testsNtB5_32MockDocker_RunCommandInContainerNtNtCsaNl6UpbT7bw_4core7default7Default7default
FN:112,_RNvXs_NtNtNtCscJhqz4rleTI_11atlas_local6client17get_deployment_id5testsNtB4_33MockDocker_DockerInspectContainerNtNtCsaNl6UpbT7bw_4core7default7Default7default
FN:112,_RINvMs4_NtNtNtNtNtCscJhqz4rleTI_11atlas_local6client17get_deployment_id5tests40___mock_MockDocker_DockerInspectContainer19___inspect_containerNtB6_6Common4withINtNtCsaS4gknD0Sqc_10predicates3ord11EqPredicateReEIB2y_INtNtCsaNl6UpbT7bw_4core6option6OptionNtNtCsiAmkw3NBFjt_13bollard_stubs16query_parameters23InspectContainerOptionsEEEBg_
FN:112,_RINvMs4_NtNtNtNtNtCscJhqz4rleTI_11atlas_local6client17get_deployment_id5tests40___mock_MockDocker_DockerInspectContainer19___inspect_containerNtB6_6Common5timesjEBg_
FN:112,_RINvMs6_NtNtNtNtNtCscJhqz4rleTI_11atlas_local6client17get_deployment_id5tests40___mock_MockDocker_DockerInspectContainer19___inspect_containerNtB6_11Expectation4withINtNtCsaS4gknD0Sqc_10predicates3ord11EqPredicateReEIB2E_INtNtCsaNl6UpbT7bw_4core6option6OptionNtNtCsiAmkw3NBFjt_13bollard_stubs16query_parameters23InspectContainerOptionsEEEBg_
FN:112,_RINvMs6_NtNtNtNtNtCscJhqz4rleTI_11atlas_local6client17get_deployment_id5tests40___mock_MockDocker_DockerInspectContainer19___inspect_containerNtB6_11Expectation5timesjEBg_
FN:112,_RINvMs6_NtNtNtNtNtCscJhqz4rleTI_11atlas_local6client17get_deployment_id5tests40___mock_MockDocker_DockerInspectContainer19___inspect_containerNtB6_11Expectation9returningNCNCNvBa_s_35test_get_deployment_id_empty_stdout00EBg_
FN:112,_RINvMs6_NtNtNtNtNtCscJhqz4rleTI_11atlas_local6client17get_deployment_id5tests40___mock_MockDocker_DockerInspectContainer19___inspect_containerNtB6_11Expectation9returningNCNCNvBa_s_36test_get_deployment_id_password_only00EBg_
FN:112,_RINvMs6_NtNtNtNtNtCscJhqz4rleTI_11atlas_local6client17get_deployment_id5tests40___mock_MockDocker_DockerInspectContainer19___inspect_containerNtB6_11Expectation9returningNCNCNvBa_s_36test_get_deployment_id_username_only00EBg_
FN:112,_RINvMs6_NtNtNtNtNtCscJhqz4rleTI_11atlas_local6client17get_deployment_id5tests40___mock_MockDocker_DockerInspectContainer19___inspect_containerNtB6_11Expectation9returningNCNCNvBa_s_41test_get_deployment_id_happy_path_no_auth00EBg_
FN:112,_RINvMs6_NtNtNtNtNtCscJhqz4rleTI_11atlas_local6client17get_deployment_id5tests40___mock_MockDocker_DockerInspectContainer19___inspect_containerNtB6_11Expectation9returningNCNCNvBa_s_42test_get_deployment_id_happy_path_env_auth00EBg_
FN:112,_RINvMs6_NtNtNtNtNtCscJhqz4rleTI_11atlas_local6client17get_deployment_id5tests40___mock_MockDocker_DockerInspectContainer19___inspect_containerNtB6_11Expectation9returningNCNCNvBa_s_43test_get_deployment_id_get_deployment_error00EBg_
FN:112,_RINvMs6_NtNtNtNtNtCscJhqz4rleTI_11atlas_local6client17get_deployment_id5tests40___mock_MockDocker_DockerInspectContainer19___inspect_containerNtB6_11Expectation9returningNCNCNvBa_s_43test_get_deployment_id_happy_path_file_auth00EBg_
FN:112,_RINvMs6_NtNtNtNtNtCscJhqz4rleTI_11atlas_local6client17get_deployment_id5tests40___mock_MockDocker_DockerInspectContainer19___inspect_containerNtB6_11Expectation9returningNCNCNvBa_s_48test_get_deployment_id_run_mongosh_command_error00EBg_
FN:112,_RINvMs6_NtNtNtNtNtCscJhqz4rleTI_11atlas_local6client17get_deployment_id5tests40___mock_MockDocker_DockerInspectContainer19___inspect_containerNtB6_11Expectation9returningNCNCNvBa_s_49test_get_deployment_id_get_mongodb_password_error00EBg_
FN:112,_RINvMs6_NtNtNtNtNtCscJhqz4rleTI_11atlas_local6client17get_deployment_id5tests40___mock_MockDocker_DockerInspectContainer19___inspect_containerNtB6_11Expectation9returningNCNCNvBa_s_49test_get_deployment_id_get_mongodb_username_error00EBg_
FN:112,_RINvMs6_NtNtNtNtNtCscJhqz4rleTI_11atlas_local6client17get_deployment_id5tests40___mock_MockDocker_DockerInspectContainer19___inspect_containerNtB6_11Expectation9returningNCNCNvBa_s_60test_get_deployment_id_mixed_auth_env_username_file_password00EBg_
FN:112,_RINvMs6_NtNtNtNtNtCscJhqz4rleTI_11atlas_local6client17get_deployment_id5tests40___mock_MockDocker_DockerInspectContainer19___inspect_containerNtB6_11Expectation9returningNCNCNvBa_s_66test_get_deployment_id_all_run_command_in_container_error_variants00EBg_
FN:112,_RNCNvMs0_NtNtNtNtNtCscJhqz4rleTI_11atlas_local6client17get_deployment_id5tests40___mock_MockDocker_DockerInspectContainer19___inspect_containerNtB7_7Matcher7matches0Bh_
FN:112,_RNCNvMsa_NtNtNtNtNtCscJhqz4rleTI_11atlas_local6client17get_deployment_id5tests40___mock_MockDocker_DockerInspectContainer19___inspect_containerNtB7_12Expectations4call0Bh_
FN:112,_RNCNvMsa_NtNtNtNtNtCscJhqz4rleTI_11atlas_local6client17get_deployment_id5tests40___mock_MockDocker_DockerInspectContainer19___inspect_containerNtB7_12Expectations4calls_0Bh_
FN:112,_RINvMs4_NtNtNtNtNtCscJhqz4rleTI_11atlas_local6client17get_deployment_id5tests39___mock_MockDocker_RunCommandInContainer26___run_command_in_containerNtB6_6Common5withfpEBg_
FN:112,_RINvMs4_NtNtNtNtNtCscJhqz4rleTI_11atlas_local6client17get_deployment_id5tests39___mock_MockDocker_RunCommandInContainer26___run_command_in_containerNtB6_6Common8withf_stpEBg_
FN:112,_RINvMs4_NtNtNtNtNtCscJhqz4rleTI_11atlas_local6client17get_deployment_id5tests40___mock_MockDocker_DockerInspectContainer19___inspect_containerNtB6_6Common5withfpEBg_
FN:112,_RINvMs4_NtNtNtNtNtCscJhqz4rleTI_11atlas_local6client17get_deployment_id5tests40___mock_MockDocker_DockerInspectContainer19___inspect_containerNtB6_6Common8withf_stpEBg_
FN:112,_RINvMs6_NtNtNtNtNtCscJhqz4rleTI_11atlas_local6client17get_deployment_id5tests39___mock_MockDocker_RunCommandInContainer26___run_command_in_containerNtB6_11Expectation11return_oncepEBg_
FN:112,_RINvMs6_NtNtNtNtNtCscJhqz4rleTI_11atlas_local6client17get_deployment_id5tests39___mock_MockDocker_RunCommandInContainer26___run_command_in_containerNtB6_11Expectation12return_constpEBg_
FN:112,_RINvMs6_NtNtNtNtNtCscJhqz4rleTI_11atlas_local6client17get_deployment_id5tests39___mock_MockDocker_RunCommandInContainer26___run_command_in_containerNtB6_11Expectation12returning_stpEBg_
FN:112,_RINvMs6_NtNtNtNtNtCscJhqz4rleTI_11atlas_local6client17get_deployment_id5tests39___mock_MockDocker_RunCommandInContainer26___run_command_in_containerNtB6_11Expectation14return_once_stpEBg_
FN:112,_RINvMs6_NtNtNtNtNtCscJhqz4rleTI_11atlas_local6client17get_deployment_id5tests39___mock_MockDocker_RunCommandInContainer26___run_command_in_containerNtB6_11Expectation15return_const_stpEBg_
FN:112,_RINvMs6_NtNtNtNtNtCscJhqz4rleTI_11atlas_local6client17get_deployment_id5tests39___mock_MockDocker_RunCommandInContainer26___run_command_in_containerNtB6_11Expectation5withfpEBg_
FN:112,_RINvMs6_NtNtNtNtNtCscJhqz4rleTI_11atlas_local6client17get_deployment_id5tests39___mock_MockDocker_RunCommandInContainer26___run_command_in_containerNtB6_11Expectation8withf_stpEBg_
FN:112,_RINvMs6_NtNtNtNtNtCscJhqz4rleTI_11atlas_local6client17get_deployment_id5tests40___mock_MockDocker_DockerInspectContainer19___inspect_containerNtB6_11Expectation11return_oncepEBg_
FN:112,_RINvMs6_NtNtNtNtNtCscJhqz4rleTI_11atlas_local6client17get_deployment_id5tests40___mock_MockDocker_DockerInspectContainer19___inspect_containerNtB6_11Expectation12return_constpEBg_
FN:112,_RINvMs6_NtNtNtNtNtCscJhqz4rleTI_11atlas_local6client17get_deployment_id5tests40___mock_MockDocker_DockerInspectContainer19___inspect_containerNtB6_11Expectation12returning_stpEBg_
FN:112,_RINvMs6_NtNtNtNtNtCscJhqz4rleTI_11atlas_local6client17get_deployment_id5tests40___mock_MockDocker_DockerInspectContainer19___inspect_containerNtB6_11Expectation14return_once_stpEBg_
FN:112,_RINvMs6_NtNtNtNtNtCscJhqz4rleTI_11atlas_local6client17get_deployment_id5tests40___mock_MockDocker_DockerInspectContainer19___inspect_containerNtB6_11Expectation15return_const_stpEBg_
FN:112,_RINvMs6_NtNtNtNtNtCscJhqz4rleTI_11atlas_local6client17get_deployment_id5tests40___mock_MockDocker_DockerInspectContainer19___inspect_containerNtB6_11Expectation5withfpEBg_
FN:112,_RINvMs6_NtNtNtNtNtCscJhqz4rleTI_11atlas_local6client17get_deployment_id5tests40___mock_MockDocker_DockerInspectContainer19___inspect_containerNtB6_11Expectation8withf_stpEBg_
FN:112,_RNCINvMs6_NtNtNtNtNtCscJhqz4rleTI_11atlas_local6client17get_deployment_id5tests39___mock_MockDocker_RunCommandInContainer26___run_command_in_containerNtB8_11Expectation12return_constpE0Bi_
FN:112,_RNCINvMs6_NtNtNtNtNtCscJhqz4rleTI_11atlas_local6client17get_deployment_id5tests39___mock_MockDocker_RunCommandInContainer26___run_command_in_containerNtB8_11Expectation15return_const_stpE0Bi_
FN:112,_RNCINvMs6_NtNtNtNtNtCscJhqz4rleTI_11atlas_local6client17get_deployment_id5tests40___mock_MockDocker_DockerInspectContainer19___inspect_containerNtB8_11Expectation12return_constpE0Bi_
FN:112,_RNCINvMs6_NtNtNtNtNtCscJhqz4rleTI_11atlas_local6client17get_deployment_id5tests40___mock_MockDocker_DockerInspectContainer19___inspect_containerNtB8_11Expectation15return_const_stpE0Bi_
FN:112,_RNvMs0_NtNtNtCscJhqz4rleTI_11atlas_local6client17get_deployment_id5testsNtB5_33MockDocker_DockerInspectContainer10checkpoint
FN:112,_RNvMs2_NtNtNtCscJhqz4rleTI_11atlas_local6client17get_deployment_id5testsNtB5_32MockDocker_RunCommandInContainer10checkpoint
FN:112,_RNvMs3_NtNtNtCscJhqz4rleTI_11atlas_local6client17get_deployment_id5testsNtB5_10MockDocker10checkpoint
FN:112,_RNvMs4_NtNtNtNtNtCscJhqz4rleTI_11atlas_local6client17get_deployment_id5tests39___mock_MockDocker_RunCommandInContainer26___run_command_in_containerNtB5_6Common11in_sequence
FN:112,_RNvMs4_NtNtNtNtNtCscJhqz4rleTI_11atlas_local6client17get_deployment_id5tests39___mock_MockDocker_RunCommandInContainer26___run_command_in_containerNtB5_6Common5never
FN:112,_RNvMs4_NtNtNtNtNtCscJhqz4rleTI_11atlas_local6client17get_deployment_id5tests40___mock_MockDocker_DockerInspectContainer19___inspect_containerNtB5_6Common11in_sequence
FN:112,_RNvMs4_NtNtNtNtNtCscJhqz4rleTI_11atlas_local6client17get_deployment_id5tests40___mock_MockDocker_DockerInspectContainer19___inspect_containerNtB5_6Common5never
FN:112,_RNvMs6_NtNtNtNtNtCscJhqz4rleTI_11atlas_local6client17get_deployment_id5tests39___mock_MockDocker_RunCommandInContainer26___run_command_in_containerNtB5_11Expectation11in_sequence
FN:112,_RNvMs6_NtNtNtNtNtCscJhqz4rleTI_11atlas_local6client17get_deployment_id5tests39___mock_MockDocker_RunCommandInContainer26___run_command_in_containerNtB5_11Expectation3new
FN:112,_RNvMs6_NtNtNtNtNtCscJhqz4rleTI_11atlas_local6client17get_deployment_id5tests39___mock_MockDocker_RunCommandInContainer26___run_command_in_containerNtB5_11Expectation4once
FN:112,_RNvMs6_NtNtNtNtNtCscJhqz4rleTI_11atlas_local6client17get_deployment_id5tests39___mock_MockDocker_RunCommandInContainer26___run_command_in_containerNtB5_11Expectation5never
FN:112,_RNvMs6_NtNtNtNtNtCscJhqz4rleTI_11atlas_local6client17get_deployment_id5tests40___mock_MockDocker_DockerInspectContainer19___inspect_containerNtB5_11Expectation11in_sequence
FN:112,_RNvMs6_NtNtNtNtNtCscJhqz4rleTI_11atlas_local6client17get_deployment_id5tests40___mock_MockDocker_DockerInspectContainer19___inspect_containerNtB5_11Expectation3new
FN:112,_RNvMs6_NtNtNtNtNtCscJhqz4rleTI_11atlas_local6client17get_deployment_id5tests40___mock_MockDocker_DockerInspectContainer19___inspect_containerNtB5_11Expectation4once
FN:112,_RNvMs6_NtNtNtNtNtCscJhqz4rleTI_11atlas_local6client17get_deployment_id5tests40___mock_MockDocker_DockerInspectContainer19___inspect_containerNtB5_11Expectation5never
FN:112,_RNvMs8_NtNtNtNtNtCscJhqz4rleTI_11atlas_local6client17get_deployment_id5tests39___mock_MockDocker_RunCommandInContainer26___run_command_in_containerNtB5_12Expectations10checkpoint
FN:112,_RNvMs8_NtNtNtNtNtCscJhqz4rleTI_11atlas_local6client17get_deployment_id5tests40___mock_MockDocker_DockerInspectContainer19___inspect_containerNtB5_12Expectations10checkpoint
FN:112,_RNvMNtNtNtNtNtCscJhqz4rleTI_11atlas_local6client17get_deployment_id5tests40___mock_MockDocker_DockerInspectContainer19___inspect_containerNtB2_5Rfunc8call_mut
FN:112,_RNvMs0_NtNtNtNtNtCscJhqz4rleTI_11atlas_local6client17get_deployment_id5tests40___mock_MockDocker_DockerInspectContainer19___inspect_containerNtB5_7Matcher7matches
FN:112,_RNvMs4_NtNtNtNtNtCscJhqz4rleTI_11atlas_local6client17get_deployment_id5tests40___mock_MockDocker_DockerInspectContainer19___inspect_containerNtB5_6Common15verify_sequence
FN:112,_RNvMs4_NtNtNtNtNtCscJhqz4rleTI_11atlas_local6client17get_deployment_id5tests40___mock_MockDocker_DockerInspectContainer19___inspect_containerNtB5_6Common16satisfy_sequence
FN:112,_RNvMs4_NtNtNtNtNtCscJhqz4rleTI_11atlas_local6client17get_deployment_id5tests40___mock_MockDocker_DockerInspectContainer19___inspect_containerNtB5_6Common4call
FN:112,_RNvMs4_NtNtNtNtNtCscJhqz4rleTI_11atlas_local6client17get_deployment_id5tests40___mock_MockDocker_DockerInspectContainer19___inspect_containerNtB5_6Common7is_done
FN:112,_RNvMs4_NtNtNtNtNtCscJhqz4rleTI_11atlas_local6client17get_deployment_id5tests40___mock_MockDocker_DockerInspectContainer19___inspect_containerNtB5_6Common7matches
FN:112,_RNvMs6_NtNtNtNtNtCscJhqz4rleTI_11atlas_local6client17get_deployment_id5tests40___mock_MockDocker_DockerInspectContainer19___inspect_containerNtB5_11Expectation4call
FN:112,_RNvMs6_NtNtNtNtNtCscJhqz4rleTI_11atlas_local6client17get_deployment_id5tests40___mock_MockDocker_DockerInspectContainer19___inspect_containerNtB5_11Expectation7is_done
FN:112,_RNvMs6_NtNtNtNtNtCscJhqz4rleTI_11atlas_local6client17get_deployment_id5tests40___mock_MockDocker_DockerInspectContainer19___inspect_containerNtB5_11Expectation7matches
FN:112,_RNvMs8_NtNtNtNtNtCscJhqz4rleTI_11atlas_local6client17get_deployment_id5tests40___mock_MockDocker_DockerInspectContainer19___inspect_containerNtB5_12Expectations3new
FN:112,_RNvMs8_NtNtNtNtNtCscJhqz4rleTI_11atlas_local6client17get_deployment_id5tests40___mock_MockDocker_DockerInspectContainer19___inspect_containerNtB5_12Expectations6expect
FN:112,_RNvMsa_NtNtNtNtNtCscJhqz4rleTI_11atlas_local6client17get_deployment_id5tests40___mock_MockDocker_DockerInspectContainer19___inspect_containerNtB5_12Expectations4call
FN:112,_RNvXs1_NtNtNtNtNtCscJhqz4rleTI_11atlas_local6client17get_deployment_id5tests40___mock_MockDocker_DockerInspectContainer19___inspect_containerNtB5_7MatcherNtNtCsaNl6UpbT7bw_4core7default7Default7default
FN:112,_RNvXs2_NtNtNtNtNtCscJhqz4rleTI_11atlas_local6client17get_deployment_id5tests40___mock_MockDocker_DockerInspectContainer19___inspect_containerNtB5_7MatcherNtNtCsaNl6UpbT7bw_4core3fmt7Display3fmt
FN:112,_RNvXs3_NtNtNtNtNtCscJhqz4rleTI_11atlas_local6client17get_deployment_id5tests40___mock_MockDocker_DockerInspectContainer19___inspect_containerNtB5_6CommonNtNtCsaNl6UpbT7bw_4core7default7Default7default
FN:112,_RNvXs7_NtNtNtNtNtCscJhqz4rleTI_11atlas_local6client17get_deployment_id5tests40___mock_MockDocker_DockerInspectContainer19___inspect_containerNtB5_11ExpectationNtNtCsaNl6UpbT7bw_4core7default7Default7default
FN:112,_RNvXs9_NtNtNtNtNtCscJhqz4rleTI_11atlas_local6client17get_deployment_id5tests40___mock_MockDocker_DockerInspectContainer19___inspect_containerNtB5_12ExpectationsNtNtCsaNl6UpbT7bw_4core7default7Default7default
FN:112,_RNvXs_NtNtNtNtNtCscJhqz4rleTI_11atlas_local6client17get_deployment_id5tests40___mock_MockDocker_DockerInspectContainer19___inspect_containerNtB4_5RfuncNtNtCsaNl6UpbT7bw_4core7default7Default7default
FN:112,_RINvMs4_NtNtNtNtNtCscJhqz4rleTI_11atlas_local6client17get_deployment_id5tests39___mock_MockDocker_RunCommandInContainer26___run_command_in_containerNtB6_6Common4withINtNtCsaS4gknD0Sqc_10predicates3ord11EqPredicateReEIB2E_INtNtCsiTraAjBDcu4_5alloc3vec3VecNtNtB3C_6string6StringEEEBg_
FN:112,_RINvMs4_NtNtNtNtNtCscJhqz4rleTI_11atlas_local6client17get_deployment_id5tests39___mock_MockDocker_RunCommandInContainer26___run_command_in_containerNtB6_6Common5timesjEBg_
FN:112,_RINvMs6_NtNtNtNtNtCscJhqz4rleTI_11atlas_local6client17get_deployment_id5tests39___mock_MockDocker_RunCommandInContainer26___run_command_in_containerNtB6_11Expectation4withINtNtCsaS4gknD0Sqc_10predicates3ord11EqPredicateReEIB2K_INtNtCsiTraAjBDcu4_5alloc3vec3VecNtNtB3I_6string6StringEEEBg_
FN:112,_RINvMs6_NtNtNtNtNtCscJhqz4rleTI_11atlas_local6client17get_deployment_id5tests39___mock_MockDocker_RunCommandInContainer26___run_command_in_containerNtB6_11Expectation5timesjEBg_
FN:112,_RINvMs6_NtNtNtNtNtCscJhqz4rleTI_11atlas_local6client17get_deployment_id5tests39___mock_MockDocker_RunCommandInContainer26___run_command_in_containerNtB6_11Expectation9returningNCNCNvBa_s_35test_get_deployment_id_empty_stdout0s_0EBg_
FN:112,_RINvMs6_NtNtNtNtNtCscJhqz4rleTI_11atlas_local6client17get_deployment_id5tests39___mock_MockDocker_RunCommandInContainer26___run_command_in_containerNtB6_11Expectation9returningNCNCNvBa_s_36test_get_deployment_id_password_only0s_0EBg_
FN:112,_RINvMs6_NtNtNtNtNtCscJhqz4rleTI_11atlas_local6client17get_deployment_id5tests39___mock_MockDocker_RunCommandInContainer26___run_command_in_containerNtB6_11Expectation9returningNCNCNvBa_s_36test_get_deployment_id_username_only0s_0EBg_
FN:112,_RINvMs6_NtNtNtNtNtCscJhqz4rleTI_11atlas_local6client17get_deployment_id5tests39___mock_MockDocker_RunCommandInContainer26___run_command_in_containerNtB6_11Expectation9returningNCNCNvBa_s_41test_get_deployment_id_happy_path_no_auth0s_0EBg_
FN:112,_RINvMs6_NtNtNtNtNtCscJhqz4rleTI_11atlas_local6client17get_deployment_id5tests39___mock_MockDocker_RunCommandInContainer26___run_command_in_containerNtB6_11Expectation9returningNCNCNvBa_s_42test_get_deployment_id_happy_path_env_auth0s_0EBg_
FN:112,_RINvMs6_NtNtNtNtNtCscJhqz4rleTI_11atlas_local6client17get_deployment_id5tests39___mock_MockDocker_RunCommandInContainer26___run_command_in_containerNtB6_11Expectation9returningNCNCNvBa_s_43test_get_deployment_id_happy_path_file_auth0s0_0EBg_
FN:112,_RINvMs6_NtNtNtNtNtCscJhqz4rleTI_11atlas_local6client17get_deployment_id5tests39___mock_MockDocker_RunCommandInContainer26___run_command_in_containerNtB6_11Expectation9returningNCNCNvBa_s_43test_get_deployment_id_happy_path_file_auth0s1_0EBg_
FN:112,_RINvMs6_NtNtNtNtNtCscJhqz4rleTI_11atlas_local6client17get_deployment_id5tests39___mock_MockDocker_RunCommandInContainer26___run_command_in_containerNtB6_11Expectation9returningNCNCNvBa_s_43test_get_deployment_id_happy_path_file_auth0s_0EBg_
FN:112,_RINvMs6_NtNtNtNtNtCscJhqz4rleTI_11atlas_local6client17get_deployment_id5tests39___mock_MockDocker_RunCommandInContainer26___run_command_in_containerNtB6_11Expectation9returningNCNCNvBa_s_48test_get_deployment_id_run_mongosh_command_error0s_0EBg_
FN:112,_RINvMs6_NtNtNtNtNtCscJhqz4rleTI_11atlas_local6client17get_deployment_id5tests39___mock_MockDocker_RunCommandInContainer26___run_command_in_containerNtB6_11Expectation9returningNCNCNvBa_s_49test_get_deployment_id_get_mongodb_password_error0s_0EBg_
FN:112,_RINvMs6_NtNtNtNtNtCscJhqz4rleTI_11atlas_local6client17get_deployment_id5tests39___mock_MockDocker_RunCommandInContainer26___run_command_in_containerNtB6_11Expectation9returningNCNCNvBa_s_49test_get_deployment_id_get_mongodb_username_error0s_0EBg_
FN:112,_RINvMs6_NtNtNtNtNtCscJhqz4rleTI_11atlas_local6client17get_deployment_id5tests39___mock_MockDocker_RunCommandInContainer26___run_command_in_containerNtB6_11Expectation9returningNCNCNvBa_s_60test_get_deployment_id_mixed_auth_env_username_file_password0s0_0EBg_
FN:112,_RINvMs6_NtNtNtNtNtCscJhqz4rleTI_11atlas_local6client17get_deployment_id5tests39___mock_MockDocker_RunCommandInContainer26___run_command_in_containerNtB6_11Expectation9returningNCNCNvBa_s_60test_get_deployment_id_mixed_auth_env_username_file_password0s_0EBg_
FN:112,_RINvMs6_NtNtNtNtNtCscJhqz4rleTI_11atlas_local6client17get_deployment_id5tests39___mock_MockDocker_RunCommandInContainer26___run_command_in_containerNtB6_11Expectation9returningNCNCNvBa_s_66test_get_deployment_id_all_run_command_in_container_error_variants0s_0EBg_
FN:112,_RNCNvMs0_NtNtNtNtNtCscJhqz4rleTI_11atlas_local6client17get_deployment_id5tests39___mock_MockDocker_RunCommandInContainer26___run_command_in_containerNtB7_7Matcher7matches0Bh_
FN:112,_RNCNvMsa_NtNtNtNtNtCscJhqz4rleTI_11atlas_local6client17get_deployment_id5tests39___mock_MockDocker_RunCommandInContainer26___run_command_in_containerNtB7_12Expectations4call0Bh_
FN:112,_RNCNvMsa_NtNtNtNtNtCscJhqz4rleTI_11atlas_local6client17get_deployment_id5tests39___mock_MockDocker_RunCommandInContainer26___run_command_in_containerNtB7_12Expectations4calls_0Bh_
FNDA:11,_RNCNCNvMNtNtCscJhqz4rleTI_11atlas_local6client17get_deployment_idINtB8_6ClientNtNtB6_5tests10MockDockerE17get_deployment_id00Ba_
FNDA:10,_RNCNCNvMNtNtCscJhqz4rleTI_11atlas_local6client17get_deployment_idINtB8_6ClientNtNtB6_5tests10MockDockerE17get_deployment_id0s0_0Ba_
FNDA:8,_RNCNCNvMNtNtCscJhqz4rleTI_11atlas_local6client17get_deployment_idINtB8_6ClientNtNtB6_5tests10MockDockerE17get_deployment_id0s1_0Ba_
FNDA:8,_RNCNCNvMNtNtCscJhqz4rleTI_11atlas_local6client17get_deployment_idINtB8_6ClientNtNtB6_5tests10MockDockerE17get_deployment_id0s_0Ba_
FNDA:12,_RNCNvMNtNtCscJhqz4rleTI_11atlas_local6client17get_deployment_idINtB6_6ClientNtNtB4_5tests10MockDockerE17get_deployment_id0B8_
FNDA:1,_RNCNCNvNtNtNtCscJhqz4rleTI_11atlas_local6client17get_deployment_id5testss_35test_get_deployment_id_empty_stdout00Bb_
FNDA:1,_RNCNCNvNtNtNtCscJhqz4rleTI_11atlas_local6client17get_deployment_id5testss_35test_get_deployment_id_empty_stdout0s_0Bb_
FNDA:1,_RNCNCNvNtNtNtCscJhqz4rleTI_11atlas_local6client17get_deployment_id5testss_36test_get_deployment_id_password_only00Bb_
FNDA:1,_RNCNCNvNtNtNtCscJhqz4rleTI_11atlas_local6client17get_deployment_id5testss_36test_get_deployment_id_password_only0s_0Bb_
FNDA:1,_RNCNCNvNtNtNtCscJhqz4rleTI_11atlas_local6client17get_deployment_id5testss_36test_get_deployment_id_username_only00Bb_
FNDA:1,_RNCNCNvNtNtNtCscJhqz4rleTI_11atlas_local6client17get_deployment_id5testss_36test_get_deployment_id_username_only0s_0Bb_
FNDA:1,_RNCNCNvNtNtNtCscJhqz4rleTI_11atlas_local6client17get_deployment_id5testss_41test_get_deployment_id_happy_path_no_auth00Bb_
FNDA:1,_RNCNCNvNtNtNtCscJhqz4rleTI_11atlas_local6client17get_deployment_id5testss_41test_get_deployment_id_happy_path_no_auth0s_0Bb_
FNDA:1,_RNCNCNvNtNtNtCscJhqz4rleTI_11atlas_local6client17get_deployment_id5testss_42test_get_deployment_id_happy_path_env_auth00Bb_
FNDA:1,_RNCNCNvNtNtNtCscJhqz4rleTI_11atlas_local6client17get_deployment_id5testss_42test_get_deployment_id_happy_path_env_auth0s_0Bb_
FNDA:1,_RNCNCNvNtNtNtCscJhqz4rleTI_11atlas_local6client17get_deployment_id5testss_43test_get_deployment_id_get_deployment_error00Bb_
FNDA:1,_RNCNCNvNtNtNtCscJhqz4rleTI_11atlas_local6client17get_deployment_id5testss_43test_get_deployment_id_happy_path_file_auth00Bb_
FNDA:1,_RNCNCNvNtNtNtCscJhqz4rleTI_11atlas_local6client17get_deployment_id5testss_43test_get_deployment_id_happy_path_file_auth0s0_0Bb_
FNDA:1,_RNCNCNvNtNtNtCscJhqz4rleTI_11atlas_local6client17get_deployment_id5testss_43test_get_deployment_id_happy_path_file_auth0s1_0Bb_
FNDA:1,_RNCNCNvNtNtNtCscJhqz4rleTI_11atlas_local6client17get_deployment_id5testss_43test_get_deployment_id_happy_path_file_auth0s_0Bb_
FNDA:1,_RNCNCNvNtNtNtCscJhqz4rleTI_11atlas_local6client17get_deployment_id5testss_48test_get_deployment_id_run_mongosh_command_error00Bb_
FNDA:1,_RNCNCNvNtNtNtCscJhqz4rleTI_11atlas_local6client17get_deployment_id5testss_48test_get_deployment_id_run_mongosh_command_error0s_0Bb_
FNDA:1,_RNCNCNvNtNtNtCscJhqz4rleTI_11atlas_local6client17get_deployment_id5testss_49test_get_deployment_id_get_mongodb_password_error00Bb_
FNDA:1,_RNCNCNvNtNtNtCscJhqz4rleTI_11atlas_local6client17get_deployment_id5testss_49test_get_deployment_id_get_mongodb_password_error0s_0Bb_
FNDA:1,_RNCNCNvNtNtNtCscJhqz4rleTI_11atlas_local6client17get_deployment_id5testss_49test_get_deployment_id_get_mongodb_username_error00Bb_
FNDA:1,_RNCNCNvNtNtNtCscJhqz4rleTI_11atlas_local6client17get_deployment_id5testss_49test_get_deployment_id_get_mongodb_username_error0s_0Bb_
FNDA:1,_RNCNCNvNtNtNtCscJhqz4rleTI_11atlas_local6client17get_deployment_id5testss_60test_get_deployment_id_mixed_auth_env_username_file_password00Bb_
FNDA:1,_RNCNCNvNtNtNtCscJhqz4rleTI_11atlas_local6client17get_deployment_id5testss_60test_get_deployment_id_mixed_auth_env_username_file_password0s0_0Bb_
FNDA:1,_RNCNCNvNtNtNtCscJhqz4rleTI_11atlas_local6client17get_deployment_id5testss_60test_get_deployment_id_mixed_auth_env_username_file_password0s_0Bb_
FNDA:1,_RNCNCNvNtNtNtCscJhqz4rleTI_11atlas_local6client17get_deployment_id5testss_66test_get_deployment_id_all_run_command_in_container_error_variants00Bb_
FNDA:1,_RNCNCNvNtNtNtCscJhqz4rleTI_11atlas_local6client17get_deployment_id5testss_66test_get_deployment_id_all_run_command_in_container_error_variants0s_0Bb_
FNDA:1,_RNCNvNtNtNtCscJhqz4rleTI_11atlas_local6client17get_deployment_id5testss_35test_get_deployment_id_empty_stdout0B9_
FNDA:1,_RNCNvNtNtNtCscJhqz4rleTI_11atlas_local6client17get_deployment_id5testss_36test_get_deployment_id_password_only0B9_
FNDA:1,_RNCNvNtNtNtCscJhqz4rleTI_11atlas_local6client17get_deployment_id5testss_36test_get_deployment_id_username_only0B9_
FNDA:1,_RNCNvNtNtNtCscJhqz4rleTI_11atlas_local6client17get_deployment_id5testss_41test_get_deployment_id_happy_path_no_auth0B9_
FNDA:1,_RNCNvNtNtNtCscJhqz4rleTI_11atlas_local6client17get_deployment_id5testss_42test_get_deployment_id_happy_path_env_auth0B9_
FNDA:1,_RNCNvNtNtNtCscJhqz4rleTI_11atlas_local6client17get_deployment_id5testss_43test_get_deployment_id_get_deployment_error0B9_
FNDA:1,_RNCNvNtNtNtCscJhqz4rleTI_11atlas_local6client17get_deployment_id5testss_43test_get_deployment_id_happy_path_file_auth0B9_
FNDA:1,_RNCNvNtNtNtCscJhqz4rleTI_11atlas_local6client17get_deployment_id5testss_48test_get_deployment_id_run_mongosh_command_error0B9_
FNDA:1,_RNCNvNtNtNtCscJhqz4rleTI_11atlas_local6client17get_deployment_id5testss_49test_get_deployment_id_get_mongodb_password_error0B9_
FNDA:1,_RNCNvNtNtNtCscJhqz4rleTI_11atlas_local6client17get_deployment_id5testss_49test_get_deployment_id_get_mongodb_username_error0B9_
FNDA:1,_RNCNvNtNtNtCscJhqz4rleTI_11atlas_local6client17get_deployment_id5testss_60test_get_deployment_id_mixed_auth_env_username_file_password0B9_
FNDA:1,_RNCNvNtNtNtCscJhqz4rleTI_11atlas_local6client17get_deployment_id5testss_66test_get_deployment_id_all_run_command_in_container_error_variants0B9_
FNDA:12,_RNCNvXs4_NtNtNtCscJhqz4rleTI_11atlas_local6client17get_deployment_id5testsNtB7_10MockDockerNtNtBd_6docker22DockerInspectContainer17inspect_container0Bd_
FNDA:14,_RNCNvXs6_NtNtNtCscJhqz4rleTI_11atlas_local6client17get_deployment_id5testsNtB7_10MockDockerNtNtBd_6docker21RunCommandInContainer24run_command_in_container0Bd_
FNDA:14,_RNvMNtNtNtNtNtCscJhqz4rleTI_11atlas_local6client17get_deployment_id5tests39___mock_MockDocker_RunCommandInContainer26___run_command_in_containerNtB2_5Rfunc8call_mut
FNDA:18,_RNvMs0_NtNtNtNtNtCscJhqz4rleTI_11atlas_local6client17get_deployment_id5tests39___mock_MockDocker_RunCommandInContainer26___run_command_in_containerNtB5_7Matcher7matches
FNDA:14,_RNvMs4_NtNtNtNtNtCscJhqz4rleTI_11atlas_local6client17get_deployment_id5tests39___mock_MockDocker_RunCommandInContainer26___run_command_in_containerNtB5_6Common15verify_sequence
FNDA:14,_RNvMs4_NtNtNtNtNtCscJhqz4rleTI_11atlas_local6client17get_deployment_id5tests39___mock_MockDocker_RunCommandInContainer26___run_command_in_containerNtB5_6Common16satisfy_sequence
FNDA:14,_RNvMs4_NtNtNtNtNtCscJhqz4rleTI_11atlas_local6client17get_deployment_id5tests39___mock_MockDocker_RunCommandInContainer26___run_command_in_containerNtB5_6Common4call
FNDA:14,_RNvMs4_NtNtNtNtNtCscJhqz4rleTI_11atlas_local6client17get_deployment_id5tests39___mock_MockDocker_RunCommandInContainer26___run_command_in_containerNtB5_6Common7is_done
FNDA:18,_RNvMs4_NtNtNtNtNtCscJhqz4rleTI_11atlas_local6client17get_deployment_id5tests39___mock_MockDocker_RunCommandInContainer26___run_command_in_containerNtB5_6Common7matches
FNDA:14,_RNvMs6_NtNtNtNtNtCscJhqz4rleTI_11atlas_local6client17get_deployment_id5tests39___mock_MockDocker_RunCommandInContainer26___run_command_in_containerNtB5_11Expectation4call
FNDA:14,_RNvMs6_NtNtNtNtNtCscJhqz4rleTI_11atlas_local6client17get_deployment_id5tests39___mock_MockDocker_RunCommandInContainer26___run_command_in_containerNtB5_11Expectation7is_done
FNDA:18,_RNvMs6_NtNtNtNtNtCscJhqz4rleTI_11atlas_local6client17get_deployment_id5tests39___mock_MockDocker_RunCommandInContainer26___run_command_in_containerNtB5_11Expectation7matches
FNDA:12,_RNvMs8_NtNtNtNtNtCscJhqz4rleTI_11atlas_local6client17get_deployment_id5tests39___mock_MockDocker_RunCommandInContainer26___run_command_in_containerNtB5_12Expectations3new
FNDA:14,_RNvMs8_NtNtNtNtNtCscJhqz4rleTI_11atlas_local6client17get_deployment_id5tests39___mock_MockDocker_RunCommandInContainer26___run_command_in_containerNtB5_12Expectations6expect
FNDA:14,_RNvMsa_NtNtNtNtNtCscJhqz4rleTI_11atlas_local6client17get_deployment_id5tests39___mock_MockDocker_RunCommandInContainer26___run_command_in_containerNtB5_12Expectations4call
FNDA:14,_RNvXs1_NtNtNtNtNtCscJhqz4rleTI_11atlas_local6client17get_deployment_id5tests39___mock_MockDocker_RunCommandInContainer26___run_command_in_containerNtB5_7MatcherNtNtCsaNl6UpbT7bw_4core7default7Default7default
FNDA:14,_RNvXs2_NtNtNtNtNtCscJhqz4rleTI_11atlas_local6client17get_deployment_id5tests39___mock_MockDocker_RunCommandInContainer26___run_command_in_containerNtB5_7MatcherNtNtCsaNl6UpbT7bw_4core3fmt7Display3fmt
FNDA:14,_RNvXs3_NtNtNtNtNtCscJhqz4rleTI_11atlas_local6client17get_deployment_id5tests39___mock_MockDocker_RunCommandInContainer26___run_command_in_containerNtB5_6CommonNtNtCsaNl6UpbT7bw_4core7default7Default7default
FNDA:14,_RNvXs7_NtNtNtNtNtCscJhqz4rleTI_11atlas_local6client17get_deployment_id5tests39___mock_MockDocker_RunCommandInContainer26___run_command_in_containerNtB5_11ExpectationNtNtCsaNl6UpbT7bw_4core7default7Default7default
FNDA:12,_RNvXs9_NtNtNtNtNtCscJhqz4rleTI_11atlas_local6client17get_deployment_id5tests39___mock_MockDocker_RunCommandInContainer26___run_command_in_containerNtB5_12ExpectationsNtNtCsaNl6UpbT7bw_4core7default7Default7default
FNDA:14,_RNvXs_NtNtNtNtNtCscJhqz4rleTI_11atlas_local6client17get_deployment_id5tests39___mock_MockDocker_RunCommandInContainer26___run_command_in_containerNtB4_5RfuncNtNtCsaNl6UpbT7bw_4core7default7Default7default
FNDA:12,_RNvMNtNtCscJhqz4rleTI_11atlas_local6client17get_deployment_idINtB4_6ClientNtNtB2_5tests10MockDockerE17get_deployment_idB6_
FNDA:14,_RNvXs5_NtNtNtNtNtCscJhqz4rleTI_11atlas_local6client17get_deployment_id5tests39___mock_MockDocker_RunCommandInContainer26___run_command_in_containerNtB5_6CommonNtNtNtCsaNl6UpbT7bw_4core3ops4drop4Drop4drop
FNDA:12,_RNvXs5_NtNtNtNtNtCscJhqz4rleTI_11atlas_local6client17get_deployment_id5tests40___mock_MockDocker_DockerInspectContainer19___inspect_containerNtB5_6CommonNtNtNtCsaNl6UpbT7bw_4core3ops4drop4Drop4drop
FNDA:12,_RNvMs3_NtNtNtCscJhqz4rleTI_11atlas_local6client17get_deployment_id5testsNtB5_10MockDocker3new
FNDA:12,_RNvMs5_NtNtNtCscJhqz4rleTI_11atlas_local6client17get_deployment_id5testsNtB5_10MockDocker24expect_inspect_container
FNDA:14,_RNvMs7_NtNtNtCscJhqz4rleTI_11atlas_local6client17get_deployment_id5testsNtB5_10MockDocker31expect_run_command_in_container
FNDA:11,_RNvNtNtNtCscJhqz4rleTI_11atlas_local6client17get_deployment_id5tests38create_test_container_inspect_response
FNDA:1,_RNvNtNtNtCscJhqz4rleTI_11atlas_local6client17get_deployment_id5testss_35test_get_deployment_id_empty_stdout
FNDA:1,_RNvNtNtNtCscJhqz4rleTI_11atlas_local6client17get_deployment_id5testss_36test_get_deployment_id_password_only
FNDA:1,_RNvNtNtNtCscJhqz4rleTI_11atlas_local6client17get_deployment_id5testss_36test_get_deployment_id_username_only
FNDA:1,_RNvNtNtNtCscJhqz4rleTI_11atlas_local6client17get_deployment_id5testss_41test_get_deployment_id_happy_path_no_auth
FNDA:1,_RNvNtNtNtCscJhqz4rleTI_11atlas_local6client17get_deployment_id5testss_42test_get_deployment_id_happy_path_env_auth
FNDA:1,_RNvNtNtNtCscJhqz4rleTI_11atlas_local6client17get_deployment_id5testss_43test_get_deployment_id_get_deployment_error
FNDA:1,_RNvNtNtNtCscJhqz4rleTI_11atlas_local6client17get_deployment_id5testss_43test_get_deployment_id_happy_path_file_auth
FNDA:1,_RNvNtNtNtCscJhqz4rleTI_11atlas_local6client17get_deployment_id5testss_48test_get_deployment_id_run_mongosh_command_error
FNDA:1,_RNvNtNtNtCscJhqz4rleTI_11atlas_local6client17get_deployment_id5testss_49test_get_deployment_id_get_mongodb_password_error
FNDA:1,_RNvNtNtNtCscJhqz4rleTI_11atlas_local6client17get_deployment_id5testss_49test_get_deployment_id_get_mongodb_username_error
FNDA:1,_RNvNtNtNtCscJhqz4rleTI_11atlas_local6client17get_deployment_id5testss_60test_get_deployment_id_mixed_auth_env_username_file_password
FNDA:1,_RNvNtNtNtCscJhqz4rleTI_11atlas_local6client17get_deployment_id5testss_66test_get_deployment_id_all_run_command_in_container_error_variants
FNDA:12,_RNvXNtNtNtCscJhqz4rleTI_11atlas_local6client17get_deployment_id5testsNtB2_10MockDockerNtNtCsaNl6UpbT7bw_4core7default7Default7default
FNDA:12,_RNvXs1_NtNtNtCscJhqz4rleTI_11atlas_local6client17get_deployment_id5testsNtB5_32MockDocker_RunCommandInContainerNtNtCsaNl6UpbT7bw_4core7default7Default7default
FNDA:12,_RNvXs_NtNtNtCscJhqz4rleTI_11atlas_local6client17get_deployment_id5testsNtB4_33MockDocker_DockerInspectContainerNtNtCsaNl6UpbT7bw_4core7default7Default7default
FNDA:12,_RINvMs4_NtNtNtNtNtCscJhqz4rleTI_11atlas_local6client17get_deployment_id5tests40___mock_MockDocker_DockerInspectContainer19___inspect_containerNtB6_6Common4withINtNtCsaS4gknD0Sqc_10predicates3ord11EqPredicateReEIB2y_INtNtCsaNl6UpbT7bw_4core6option6OptionNtNtCsiAmkw3NBFjt_13bollard_stubs16query_parameters23InspectContainerOptionsEEEBg_
FNDA:12,_RINvMs4_NtNtNtNtNtCscJhqz4rleTI_11atlas_local6client17get_deployment_id5tests40___mock_MockDocker_DockerInspectContainer19___inspect_containerNtB6_6Common5timesjEBg_
FNDA:12,_RINvMs6_NtNtNtNtNtCscJhqz4rleTI_11atlas_local6client17get_deployment_id5tests40___mock_MockDocker_DockerInspectContainer19___inspect_containerNtB6_11Expectation4withINtNtCsaS4gknD0Sqc_10predicates3ord11EqPredicateReEIB2E_INtNtCsaNl6UpbT7bw_4core6option6OptionNtNtCsiAmkw3NBFjt_13bollard_stubs16query_parameters23InspectContainerOptionsEEEBg_
FNDA:12,_RINvMs6_NtNtNtNtNtCscJhqz4rleTI_11atlas_local6client17get_deployment_id5tests40___mock_MockDocker_DockerInspectContainer19___inspect_containerNtB6_11Expectation5timesjEBg_
FNDA:1,_RINvMs6_NtNtNtNtNtCscJhqz4rleTI_11atlas_local6client17get_deployment_id5tests40___mock_MockDocker_DockerInspectContainer19___inspect_containerNtB6_11Expectation9returningNCNCNvBa_s_35test_get_deployment_id_empty_stdout00EBg_
FNDA:1,_RINvMs6_NtNtNtNtNtCscJhqz4rleTI_11atlas_local6client17get_deployment_id5tests40___mock_MockDocker_DockerInspectContainer19___inspect_containerNtB6_11Expectation9returningNCNCNvBa_s_36test_get_deployment_id_password_only00EBg_
FNDA:1,_RINvMs6_NtNtNtNtNtCscJhqz4rleTI_11atlas_local6client17get_deployment_id5tests40___mock_MockDocker_DockerInspectContainer19___inspect_containerNtB6_11Expectation9returningNCNCNvBa_s_36test_get_deployment_id_username_only00EBg_
FNDA:1,_RINvMs6_NtNtNtNtNtCscJhqz4rleTI_11atlas_local6client17get_deployment_id5tests40___mock_MockDocker_DockerInspectContainer19___inspect_containerNtB6_11Expectation9returningNCNCNvBa_s_41test_get_deployment_id_happy_path_no_auth00EBg_
FNDA:1,_RINvMs6_NtNtNtNtNtCscJhqz4rleTI_11atlas_local6client17get_deployment_id5tests40___mock_MockDocker_DockerInspectContainer19___inspect_containerNtB6_11Expectation9returningNCNCNvBa_s_42test_get_deployment_id_happy_path_env_auth00EBg_
FNDA:1,_RINvMs6_NtNtNtNtNtCscJhqz4rleTI_11atlas_local6client17get_deployment_id5tests40___mock_MockDocker_DockerInspectContainer19___inspect_containerNtB6_11Expectation9returningNCNCNvBa_s_43test_get_deployment_id_get_deployment_error00EBg_
FNDA:1,_RINvMs6_NtNtNtNtNtCscJhqz4rleTI_11atlas_local6client17get_deployment_id5tests40___mock_MockDocker_DockerInspectContainer19___inspect_containerNtB6_11Expectation9returningNCNCNvBa_s_43test_get_deployment_id_happy_path_file_auth00EBg_
FNDA:1,_RINvMs6_NtNtNtNtNtCscJhqz4rleTI_11atlas_local6client17get_deployment_id5tests40___mock_MockDocker_DockerInspectContainer19___inspect_containerNtB6_11Expectation9returningNCNCNvBa_s_48test_get_deployment_id_run_mongosh_command_error00EBg_
FNDA:1,_RINvMs6_NtNtNtNtNtCscJhqz4rleTI_11atlas_local6client17get_deployment_id5tests40___mock_MockDocker_DockerInspectContainer19___inspect_containerNtB6_11Expectation9returningNCNCNvBa_s_49test_get_deployment_id_get_mongodb_password_error00EBg_
FNDA:1,_RINvMs6_NtNtNtNtNtCscJhqz4rleTI_11atlas_local6client17get_deployment_id5tests40___mock_MockDocker_DockerInspectContainer19___inspect_containerNtB6_11Expectation9returningNCNCNvBa_s_49test_get_deployment_id_get_mongodb_username_error00EBg_
FNDA:1,_RINvMs6_NtNtNtNtNtCscJhqz4rleTI_11atlas_local6client17get_deployment_id5tests40___mock_MockDocker_DockerInspectContainer19___inspect_containerNtB6_11Expectation9returningNCNCNvBa_s_60test_get_deployment_id_mixed_auth_env_username_file_password00EBg_
FNDA:1,_RINvMs6_NtNtNtNtNtCscJhqz4rleTI_11atlas_local6client17get_deployment_id5tests40___mock_MockDocker_DockerInspectContainer19___inspect_containerNtB6_11Expectation9returningNCNCNvBa_s_66test_get_deployment_id_all_run_command_in_container_error_variants00EBg_
FNDA:24,_RNCNvMs0_NtNtNtNtNtCscJhqz4rleTI_11atlas_local6client17get_deployment_id5tests40___mock_MockDocker_DockerInspectContainer19___inspect_containerNtB7_7Matcher7matches0Bh_
FNDA:12,_RNCNvMsa_NtNtNtNtNtCscJhqz4rleTI_11atlas_local6client17get_deployment_id5tests40___mock_MockDocker_DockerInspectContainer19___inspect_containerNtB7_12Expectations4call0Bh_
FNDA:12,_RNCNvMsa_NtNtNtNtNtCscJhqz4rleTI_11atlas_local6client17get_deployment_id5tests40___mock_MockDocker_DockerInspectContainer19___inspect_containerNtB7_12Expectations4calls_0Bh_
FNDA:0,_RINvMs4_NtNtNtNtNtCscJhqz4rleTI_11atlas_local6client17get_deployment_id5tests39___mock_MockDocker_RunCommandInContainer26___run_command_in_containerNtB6_6Common5withfpEBg_
FNDA:0,_RINvMs4_NtNtNtNtNtCscJhqz4rleTI_11atlas_local6client17get_deployment_id5tests39___mock_MockDocker_RunCommandInContainer26___run_command_in_containerNtB6_6Common8withf_stpEBg_
FNDA:0,_RINvMs4_NtNtNtNtNtCscJhqz4rleTI_11atlas_local6client17get_deployment_id5tests40___mock_MockDocker_DockerInspectContainer19___inspect_containerNtB6_6Common5withfpEBg_
FNDA:0,_RINvMs4_NtNtNtNtNtCscJhqz4rleTI_11atlas_local6client17get_deployment_id5tests40___mock_MockDocker_DockerInspectContainer19___inspect_containerNtB6_6Common8withf_stpEBg_
FNDA:0,_RINvMs6_NtNtNtNtNtCscJhqz4rleTI_11atlas_local6client17get_deployment_id5tests39___mock_MockDocker_RunCommandInContainer26___run_command_in_containerNtB6_11Expectation11return_oncepEBg_
FNDA:0,_RINvMs6_NtNtNtNtNtCscJhqz4rleTI_11atlas_local6client17get_deployment_id5tests39___mock_MockDocker_RunCommandInContainer26___run_command_in_containerNtB6_11Expectation12return_constpEBg_
FNDA:0,_RINvMs6_NtNtNtNtNtCscJhqz4rleTI_11atlas_local6client17get_deployment_id5tests39___mock_MockDocker_RunCommandInContainer26___run_command_in_containerNtB6_11Expectation12returning_stpEBg_
FNDA:0,_RINvMs6_NtNtNtNtNtCscJhqz4rleTI_11atlas_local6client17get_deployment_id5tests39___mock_MockDocker_RunCommandInContainer26___run_command_in_containerNtB6_11Expectation14return_once_stpEBg_
FNDA:0,_RINvMs6_NtNtNtNtNtCscJhqz4rleTI_11atlas_local6client17get_deployment_id5tests39___mock_MockDocker_RunCommandInContainer26___run_command_in_containerNtB6_11Expectation15return_const_stpEBg_
FNDA:0,_RINvMs6_NtNtNtNtNtCscJhqz4rleTI_11atlas_local6client17get_deployment_id5tests39___mock_MockDocker_RunCommandInContainer26___run_command_in_containerNtB6_11Expectation5withfpEBg_
FNDA:0,_RINvMs6_NtNtNtNtNtCscJhqz4rleTI_11atlas_local6client17get_deployment_id5tests39___mock_MockDocker_RunCommandInContainer26___run_command_in_containerNtB6_11Expectation8withf_stpEBg_
FNDA:0,_RINvMs6_NtNtNtNtNtCscJhqz4rleTI_11atlas_local6client17get_deployment_id5tests40___mock_MockDocker_DockerInspectContainer19___inspect_containerNtB6_11Expectation11return_oncepEBg_
FNDA:0,_RINvMs6_NtNtNtNtNtCscJhqz4rleTI_11atlas_local6client17get_deployment_id5tests40___mock_MockDocker_DockerInspectContainer19___inspect_containerNtB6_11Expectation12return_constpEBg_
FNDA:0,_RINvMs6_NtNtNtNtNtCscJhqz4rleTI_11atlas_local6client17get_deployment_id5tests40___mock_MockDocker_DockerInspectContainer19___inspect_containerNtB6_11Expectation12returning_stpEBg_
FNDA:0,_RINvMs6_NtNtNtNtNtCscJhqz4rleTI_11atlas_local6client17get_deployment_id5tests40___mock_MockDocker_DockerInspectContainer19___inspect_containerNtB6_11Expectation14return_once_stpEBg_
FNDA:0,_RINvMs6_NtNtNtNtNtCscJhqz4rleTI_11atlas_local6client17get_deployment_id5tests40___mock_MockDocker_DockerInspectContainer19___inspect_containerNtB6_11Expectation15return_const_stpEBg_
FNDA:0,_RINvMs6_NtNtNtNtNtCscJhqz4rleTI_11atlas_local6client17get_deployment_id5tests40___mock_MockDocker_DockerInspectContainer19___inspect_containerNtB6_11Expectation5withfpEBg_
FNDA:0,_RINvMs6_NtNtNtNtNtCscJhqz4rleTI_11atlas_local6client17get_deployment_id5tests40___mock_MockDocker_DockerInspectContainer19___inspect_containerNtB6_11Expectation8withf_stpEBg_
FNDA:0,_RNCINvMs6_NtNtNtNtNtCscJhqz4rleTI_11atlas_local6client17get_deployment_id5tests39___mock_MockDocker_RunCommandInContainer26___run_command_in_containerNtB8_11Expectation12return_constpE0Bi_
FNDA:0,_RNCINvMs6_NtNtNtNtNtCscJhqz4rleTI_11atlas_local6client17get_deployment_id5tests39___mock_MockDocker_RunCommandInContainer26___run_command_in_containerNtB8_11Expectation15return_const_stpE0Bi_
FNDA:0,_RNCINvMs6_NtNtNtNtNtCscJhqz4rleTI_11atlas_local6client17get_deployment_id5tests40___mock_MockDocker_DockerInspectContainer19___inspect_containerNtB8_11Expectation12return_constpE0Bi_
FNDA:0,_RNCINvMs6_NtNtNtNtNtCscJhqz4rleTI_11atlas_local6client17get_deployment_id5tests40___mock_MockDocker_DockerInspectContainer19___inspect_containerNtB8_11Expectation15return_const_stpE0Bi_
FNDA:0,_RNvMs0_NtNtNtCscJhqz4rleTI_11atlas_local6client17get_deployment_id5testsNtB5_33MockDocker_DockerInspectContainer10checkpoint
FNDA:0,_RNvMs2_NtNtNtCscJhqz4rleTI_11atlas_local6client17get_deployment_id5testsNtB5_32MockDocker_RunCommandInContainer10checkpoint
FNDA:0,_RNvMs3_NtNtNtCscJhqz4rleTI_11atlas_local6client17get_deployment_id5testsNtB5_10MockDocker10checkpoint
FNDA:0,_RNvMs4_NtNtNtNtNtCscJhqz4rleTI_11atlas_local6client17get_deployment_id5tests39___mock_MockDocker_RunCommandInContainer26___run_command_in_containerNtB5_6Common11in_sequence
FNDA:0,_RNvMs4_NtNtNtNtNtCscJhqz4rleTI_11atlas_local6client17get_deployment_id5tests39___mock_MockDocker_RunCommandInContainer26___run_command_in_containerNtB5_6Common5never
FNDA:0,_RNvMs4_NtNtNtNtNtCscJhqz4rleTI_11atlas_local6client17get_deployment_id5tests40___mock_MockDocker_DockerInspectContainer19___inspect_containerNtB5_6Common11in_sequence
FNDA:0,_RNvMs4_NtNtNtNtNtCscJhqz4rleTI_11atlas_local6client17get_deployment_id5tests40___mock_MockDocker_DockerInspectContainer19___inspect_containerNtB5_6Common5never
FNDA:0,_RNvMs6_NtNtNtNtNtCscJhqz4rleTI_11atlas_local6client17get_deployment_id5tests39___mock_MockDocker_RunCommandInContainer26___run_command_in_containerNtB5_11Expectation11in_sequence
FNDA:0,_RNvMs6_NtNtNtNtNtCscJhqz4rleTI_11atlas_local6client17get_deployment_id5tests39___mock_MockDocker_RunCommandInContainer26___run_command_in_containerNtB5_11Expectation3new
FNDA:0,_RNvMs6_NtNtNtNtNtCscJhqz4rleTI_11atlas_local6client17get_deployment_id5tests39___mock_MockDocker_RunCommandInContainer26___run_command_in_containerNtB5_11Expectation4once
FNDA:0,_RNvMs6_NtNtNtNtNtCscJhqz4rleTI_11atlas_local6client17get_deployment_id5tests39___mock_MockDocker_RunCommandInContainer26___run_command_in_containerNtB5_11Expectation5never
FNDA:0,_RNvMs6_NtNtNtNtNtCscJhqz4rleTI_11atlas_local6client17get_deployment_id5tests40___mock_MockDocker_DockerInspectContainer19___inspect_containerNtB5_11Expectation11in_sequence
FNDA:0,_RNvMs6_NtNtNtNtNtCscJhqz4rleTI_11atlas_local6client17get_deployment_id5tests40___mock_MockDocker_DockerInspectContainer19___inspect_containerNtB5_11Expectation3new
FNDA:0,_RNvMs6_NtNtNtNtNtCscJhqz4rleTI_11atlas_local6client17get_deployment_id5tests40___mock_MockDocker_DockerInspectContainer19___inspect_containerNtB5_11Expectation4once
FNDA:0,_RNvMs6_NtNtNtNtNtCscJhqz4rleTI_11atlas_local6client17get_deployment_id5tests40___mock_MockDocker_DockerInspectContainer19___inspect_containerNtB5_11Expectation5never
FNDA:0,_RNvMs8_NtNtNtNtNtCscJhqz4rleTI_11atlas_local6client17get_deployment_id5tests39___mock_MockDocker_RunCommandInContainer26___run_command_in_containerNtB5_12Expectations10checkpoint
FNDA:0,_RNvMs8_NtNtNtNtNtCscJhqz4rleTI_11atlas_local6client17get_deployment_id5tests40___mock_MockDocker_DockerInspectContainer19___inspect_containerNtB5_12Expectations10checkpoint
FNDA:12,_RNvMNtNtNtNtNtCscJhqz4rleTI_11atlas_local6client17get_deployment_id5tests40___mock_MockDocker_DockerInspectContainer19___inspect_containerNtB2_5Rfunc8call_mut
FNDA:12,_RNvMs0_NtNtNtNtNtCscJhqz4rleTI_11atlas_local6client17get_deployment_id5tests40___mock_MockDocker_DockerInspectContainer19___inspect_containerNtB5_7Matcher7matches
FNDA:12,_RNvMs4_NtNtNtNtNtCscJhqz4rleTI_11atlas_local6client17get_deployment_id5tests40___mock_MockDocker_DockerInspectContainer19___inspect_containerNtB5_6Common15verify_sequence
FNDA:12,_RNvMs4_NtNtNtNtNtCscJhqz4rleTI_11atlas_local6client17get_deployment_id5tests40___mock_MockDocker_DockerInspectContainer19___inspect_containerNtB5_6Common16satisfy_sequence
FNDA:12,_RNvMs4_NtNtNtNtNtCscJhqz4rleTI_11atlas_local6client17get_deployment_id5tests40___mock_MockDocker_DockerInspectContainer19___inspect_containerNtB5_6Common4call
FNDA:12,_RNvMs4_NtNtNtNtNtCscJhqz4rleTI_11atlas_local6client17get_deployment_id5tests40___mock_MockDocker_DockerInspectContainer19___inspect_containerNtB5_6Common7is_done
FNDA:12,_RNvMs4_NtNtNtNtNtCscJhqz4rleTI_11atlas_local6client17get_deployment_id5tests40___mock_MockDocker_DockerInspectContainer19___inspect_containerNtB5_6Common7matches
FNDA:12,_RNvMs6_NtNtNtNtNtCscJhqz4rleTI_11atlas_local6client17get_deployment_id5tests40___mock_MockDocker_DockerInspectContainer19___inspect_containerNtB5_11Expectation4call
FNDA:12,_RNvMs6_NtNtNtNtNtCscJhqz4rleTI_11atlas_local6client17get_deployment_id5tests40___mock_MockDocker_DockerInspectContainer19___inspect_containerNtB5_11Expectation7is_done
FNDA:12,_RNvMs6_NtNtNtNtNtCscJhqz4rleTI_11atlas_local6client17get_deployment_id5tests40___mock_MockDocker_DockerInspectContainer19___inspect_containerNtB5_11Expectation7matches
FNDA:12,_RNvMs8_NtNtNtNtNtCscJhqz4rleTI_11atlas_local6client17get_deployment_id5tests40___mock_MockDocker_DockerInspectContainer19___inspect_containerNtB5_12Expectations3new
FNDA:12,_RNvMs8_NtNtNtNtNtCscJhqz4rleTI_11atlas_local6client17get_deployment_id5tests40___mock_MockDocker_DockerInspectContainer19___inspect_containerNtB5_12Expectations6expect
FNDA:12,_RNvMsa_NtNtNtNtNtCscJhqz4rleTI_11atlas_local6client17get_deployment_id5tests40___mock_MockDocker_DockerInspectContainer19___inspect_containerNtB5_12Expectations4call
FNDA:12,_RNvXs1_NtNtNtNtNtCscJhqz4rleTI_11atlas_local6client17get_deployment_id5tests40___mock_MockDocker_DockerInspectContainer19___inspect_containerNtB5_7MatcherNtNtCsaNl6UpbT7bw_4core7default7Default7default
FNDA:12,_RNvXs2_NtNtNtNtNtCscJhqz4rleTI_11atlas_local6client17get_deployment_id5tests40___mock_MockDocker_DockerInspectContainer19___inspect_containerNtB5_7MatcherNtNtCsaNl6UpbT7bw_4core3fmt7Display3fmt
FNDA:12,_RNvXs3_NtNtNtNtNtCscJhqz4rleTI_11atlas_local6client17get_deployment_id5tests40___mock_MockDocker_DockerInspectContainer19___inspect_containerNtB5_6CommonNtNtCsaNl6UpbT7bw_4core7default7Default7default
FNDA:12,_RNvXs7_NtNtNtNtNtCscJhqz4rleTI_11atlas_local6client17get_deployment_id5tests40___mock_MockDocker_DockerInspectContainer19___inspect_containerNtB5_11ExpectationNtNtCsaNl6UpbT7bw_4core7default7Default7default
FNDA:12,_RNvXs9_NtNtNtNtNtCscJhqz4rleTI_11atlas_local6client17get_deployment_id5tests40___mock_MockDocker_DockerInspectContainer19___inspect_containerNtB5_12ExpectationsNtNtCsaNl6UpbT7bw_4core7default7Default7default
FNDA:12,_RNvXs_NtNtNtNtNtCscJhqz4rleTI_11atlas_local6client17get_deployment_id5tests40___mock_MockDocker_DockerInspectContainer19___inspect_containerNtB4_5RfuncNtNtCsaNl6UpbT7bw_4core7default7Default7default
FNDA:14,_RINvMs4_NtNtNtNtNtCscJhqz4rleTI_11atlas_local6client17get_deployment_id5tests39___mock_MockDocker_RunCommandInContainer26___run_command_in_containerNtB6_6Common4withINtNtCsaS4gknD0Sqc_10predicates3ord11EqPredicateReEIB2E_INtNtCsiTraAjBDcu4_5alloc3vec3VecNtNtB3C_6string6StringEEEBg_
FNDA:14,_RINvMs4_NtNtNtNtNtCscJhqz4rleTI_11atlas_local6client17get_deployment_id5tests39___mock_MockDocker_RunCommandInContainer26___run_command_in_containerNtB6_6Common5timesjEBg_
FNDA:14,_RINvMs6_NtNtNtNtNtCscJhqz4rleTI_11atlas_local6client17get_deployment_id5tests39___mock_MockDocker_RunCommandInContainer26___run_command_in_containerNtB6_11Expectation4withINtNtCsaS4gknD0Sqc_10predicates3ord11EqPredicateReEIB2K_INtNtCsiTraAjBDcu4_5alloc3vec3VecNtNtB3I_6string6StringEEEBg_
FNDA:14,_RINvMs6_NtNtNtNtNtCscJhqz4rleTI_11atlas_local6client17get_deployment_id5tests39___mock_MockDocker_RunCommandInContainer26___run_command_in_containerNtB6_11Expectation5timesjEBg_
FNDA:1,_RINvMs6_NtNtNtNtNtCscJhqz4rleTI_11atlas_local6client17get_deployment_id5tests39___mock_MockDocker_RunCommandInContainer26___run_command_in_containerNtB6_11Expectation9returningNCNCNvBa_s_35test_get_deployment_id_empty_stdout0s_0EBg_
FNDA:1,_RINvMs6_NtNtNtNtNtCscJhqz4rleTI_11atlas_local6client17get_deployment_id5tests39___mock_MockDocker_RunCommandInContainer26___run_command_in_containerNtB6_11Expectation9returningNCNCNvBa_s_36test_get_deployment_id_password_only0s_0EBg_
FNDA:1,_RINvMs6_NtNtNtNtNtCscJhqz4rleTI_11atlas_local6client17get_deployment_id5tests39___mock_MockDocker_RunCommandInContainer26___run_command_in_containerNtB6_11Expectation9returningNCNCNvBa_s_36test_get_deployment_id_username_only0s_0EBg_
FNDA:1,_RINvMs6_NtNtNtNtNtCscJhqz4rleTI_11atlas_local6client17get_deployment_id5tests39___mock_MockDocker_RunCommandInContainer26___run_command_in_containerNtB6_11Expectation9returningNCNCNvBa_s_41test_get_deployment_id_happy_path_no_auth0s_0EBg_
FNDA:1,_RINvMs6_NtNtNtNtNtCscJhqz4rleTI_11atlas_local6client17get_deployment_id5tests39___mock_MockDocker_RunCommandInContainer26___run_command_in_containerNtB6_11Expectation9returningNCNCNvBa_s_42test_get_deployment_id_happy_path_env_auth0s_0EBg_
FNDA:1,_RINvMs6_NtNtNtNtNtCscJhqz4rleTI_11atlas_local6client17get_deployment_id5tests39___mock_MockDocker_RunCommandInContainer26___run_command_in_containerNtB6_11Expectation9returningNCNCNvBa_s_43test_get_deployment_id_happy_path_file_auth0s0_0EBg_
FNDA:1,_RINvMs6_NtNtNtNtNtCscJhqz4rleTI_11atlas_local6client17get_deployment_id5tests39___mock_MockDocker_RunCommandInContainer26___run_command_in_containerNtB6_11Expectation9returningNCNCNvBa_s_43test_get_deployment_id_happy_path_file_auth0s1_0EBg_
FNDA:1,_RINvMs6_NtNtNtNtNtCscJhqz4rleTI_11atlas_local6client17get_deployment_id5tests39___mock_MockDocker_RunCommandInContainer26___run_command_in_containerNtB6_11Expectation9returningNCNCNvBa_s_43test_get_deployment_id_happy_path_file_auth0s_0EBg_
FNDA:1,_RINvMs6_NtNtNtNtNtCscJhqz4rleTI_11atlas_local6client17get_deployment_id5tests39___mock_MockDocker_RunCommandInContainer26___run_command_in_containerNtB6_11Expectation9returningNCNCNvBa_s_48test_get_deployment_id_run_mongosh_command_error0s_0EBg_
FNDA:1,_RINvMs6_NtNtNtNtNtCscJhqz4rleTI_11atlas_local6client17get_deployment_id5tests39___mock_MockDocker_RunCommandInContainer26___run_command_in_containerNtB6_11Expectation9returningNCNCNvBa_s_49test_get_deployment_id_get_mongodb_password_error0s_0EBg_
FNDA:1,_RINvMs6_NtNtNtNtNtCscJhqz4rleTI_11atlas_local6client17get_deployment_id5tests39___mock_MockDocker_RunCommandInContainer26___run_command_in_containerNtB6_11Expectation9returningNCNCNvBa_s_49test_get_deployment_id_get_mongodb_username_error0s_0EBg_
FNDA:1,_RINvMs6_NtNtNtNtNtCscJhqz4rleTI_11atlas_local6client17get_deployment_id5tests39___mock_MockDocker_RunCommandInContainer26___run_command_in_containerNtB6_11Expectation9returningNCNCNvBa_s_60test_get_deployment_id_mixed_auth_env_username_file_password0s0_0EBg_
FNDA:1,_RINvMs6_NtNtNtNtNtCscJhqz4rleTI_11atlas_local6client17get_deployment_id5tests39___mock_MockDocker_RunCommandInContainer26___run_command_in_containerNtB6_11Expectation9returningNCNCNvBa_s_60test_get_deployment_id_mixed_auth_env_username_file_password0s_0EBg_
FNDA:1,_RINvMs6_NtNtNtNtNtCscJhqz4rleTI_11atlas_local6client17get_deployment_id5tests39___mock_MockDocker_RunCommandInContainer26___run_command_in_containerNtB6_11Expectation9returningNCNCNvBa_s_66test_get_deployment_id_all_run_command_in_container_error_variants0s_0EBg_
FNDA:36,_RNCNvMs0_NtNtNtNtNtCscJhqz4rleTI_11atlas_local6client17get_deployment_id5tests39___mock_MockDocker_RunCommandInContainer26___run_command_in_containerNtB7_7Matcher7matches0Bh_
FNDA:18,_RNCNvMsa_NtNtNtNtNtCscJhqz4rleTI_11atlas_local6client17get_deployment_id5tests39___mock_MockDocker_RunCommandInContainer26___run_command_in_containerNtB7_12Expectations4call0Bh_
FNDA:14,_RNCNvMsa_NtNtNtNtNtCscJhqz4rleTI_11atlas_local6client17get_deployment_id5tests39___mock_MockDocker_RunCommandInContainer26___run_command_in_containerNtB7_12Expectations4calls_0Bh_
FNF:60
FNH:60
DA:23,12
DA:24,12
DA:25,12
DA:26,12
DA:27,12
DA:30,11
DA:31,11
DA:32,11
DA:33,11
DA:34,8
DA:36,11
DA:37,11
DA:40,10
DA:41,10
DA:42,10
DA:43,10
DA:44,8
DA:46,10
DA:47,10
DA:50,9
DA:51,9
DA:52,9
DA:54,9
DA:55,4
DA:56,5
DA:57,9
DA:58,4
DA:59,5
DA:61,9
DA:62,9
DA:63,9
DA:66,9
DA:67,9
DA:68,9
DA:69,9
DA:70,9
DA:72,7
DA:73,6
DA:74,6
DA:75,1
DA:77,12
DA:99,12
DA:100,12
DA:101,12
DA:107,14
DA:108,14
DA:109,14
DA:112,848
DA:115,11
DA:116,11
DA:117,11
DA:118,11
DA:119,11
DA:120,11
DA:121,11
DA:122,11
DA:123,11
DA:124,11
DA:125,11
DA:126,11
DA:127,11
DA:128,11
DA:129,11
DA:130,11
DA:131,11
DA:132,11
DA:133,11
DA:134,11
DA:137,1
DA:139,1
DA:140,1
DA:143,1
DA:144,1
DA:145,1
DA:146,1
DA:147,1
DA:150,1
DA:151,1
DA:152,1
DA:153,1
DA:154,1
DA:155,1
DA:156,1
DA:157,1
DA:158,1
DA:159,1
DA:160,1
DA:161,1
DA:162,1
DA:163,1
DA:164,1
DA:165,1
DA:166,1
DA:167,1
DA:168,1
DA:170,1
DA:173,1
DA:176,1
DA:177,1
DA:178,1
DA:181,1
DA:183,1
DA:184,1
DA:187,1
DA:188,1
DA:189,1
DA:190,1
DA:191,1
DA:192,1
DA:195,1
DA:196,1
DA:197,1
DA:198,1
DA:199,1
DA:202,1
DA:203,1
DA:204,1
DA:205,1
DA:206,1
DA:207,1
DA:208,1
DA:209,1
DA:210,1
DA:211,1
DA:212,1
DA:213,1
DA:214,1
DA:215,1
DA:216,1
DA:217,1
DA:218,1
DA:219,1
DA:220,1
DA:221,1
DA:222,1
DA:224,1
DA:227,1
DA:230,1
DA:231,1
DA:232,1
DA:235,1
DA:237,1
DA:238,1
DA:241,1
DA:242,1
DA:243,1
DA:244,1
DA:245,1
DA:246,1
DA:249,1
DA:250,1
DA:251,1
DA:252,1
DA:253,1
DA:256,1
DA:257,1
DA:258,1
DA:259,1
DA:260,1
DA:261,1
DA:262,1
DA:263,1
DA:264,1
DA:265,1
DA:266,1
DA:267,1
DA:268,1
DA:271,1
DA:272,1
DA:273,1
DA:274,1
DA:275,1
DA:276,1
DA:277,1
DA:278,1
DA:279,1
DA:280,1
DA:281,1
DA:282,1
DA:283,1
DA:286,1
DA:287,1
DA:288,1
DA:289,1
DA:290,1
DA:291,1
DA:292,1
DA:293,1
DA:294,1
DA:295,1
DA:296,1
DA:297,1
DA:298,1
DA:299,1
DA:300,1
DA:301,1
DA:302,1
DA:303,1
DA:304,1
DA:305,1
DA:306,1
DA:308,1
DA:311,1
DA:314,1
DA:315,1
DA:316,1
DA:319,1
DA:321,1
DA:324,1
DA:325,1
DA:326,1
DA:327,1
DA:328,1
DA:329,1
DA:330,1
DA:331,1
DA:332,1
DA:333,1
DA:334,1
DA:335,1
DA:336,1
DA:338,1
DA:341,1
DA:344,1
DA:345,1
DA:346,1
DA:347,1
DA:348,1
DA:349,1
DA:350,1
DA:351,1
DA:354,1
DA:356,1
DA:357,1
DA:360,1
DA:361,1
DA:362,1
DA:363,1
DA:364,1
DA:367,1
DA:368,1
DA:369,1
DA:370,1
DA:371,1
DA:374,1
DA:375,1
DA:376,1
DA:377,1
DA:378,1
DA:379,1
DA:380,1
DA:381,1
DA:382,1
DA:383,1
DA:384,1
DA:385,1
DA:386,1
DA:387,1
DA:388,1
DA:390,1
DA:393,1
DA:396,1
DA:397,1
DA:398,1
DA:399,1
DA:400,1
DA:401,1
DA:402,1
DA:403,1
DA:406,1
DA:408,1
DA:409,1
DA:412,1
DA:413,1
DA:414,1
DA:415,1
DA:416,1
DA:419,1
DA:420,1
DA:421,1
DA:422,1
DA:423,1
DA:426,1
DA:427,1
DA:428,1
DA:429,1
DA:430,1
DA:431,1
DA:432,1
DA:433,1
DA:434,1
DA:435,1
DA:436,1
DA:437,1
DA:438,1
DA:439,1
DA:440,1
DA:442,1
DA:445,1
DA:448,1
DA:449,1
DA:450,1
DA:451,1
DA:452,1
DA:453,1
DA:454,1
DA:455,1
DA:458,1
DA:460,1
DA:461,1
DA:464,1
DA:465,1
DA:466,1
DA:467,1
DA:468,1
DA:471,1
DA:472,1
DA:473,1
DA:474,1
DA:475,1
DA:476,1
DA:477,1
DA:478,1
DA:479,1
DA:480,1
DA:481,1
DA:482,1
DA:483,1
DA:484,1
DA:486,1
DA:489,1
DA:492,1
DA:493,1
DA:494,1
DA:495,1
DA:496,1
DA:497,1
DA:498,1
DA:499,1
DA:502,1
DA:504,1
DA:505,1
DA:508,1
DA:509,1
DA:510,1
DA:511,1
DA:512,1
DA:513,1
DA:516,1
DA:517,1
DA:518,1
DA:519,1
DA:520,1
DA:523,1
DA:524,1
DA:525,1
DA:526,1
DA:527,1
DA:528,1
DA:529,1
DA:530,1
DA:531,1
DA:532,1
DA:533,1
DA:534,1
DA:535,1
DA:538,1
DA:539,1
DA:540,1
DA:541,1
DA:542,1
DA:543,1
DA:544,1
DA:545,1
DA:546,1
DA:547,1
DA:548,1
DA:549,1
DA:550,1
DA:551,1
DA:552,1
DA:553,1
DA:554,1
DA:555,1
DA:556,1
DA:557,1
DA:558,1
DA:560,1
DA:563,1
DA:566,1
DA:567,1
DA:568,1
DA:571,1
DA:575,1
DA:576,1
DA:578,1
DA:579,1
DA:580,1
DA:581,1
DA:582,1
DA:584,1
DA:585,1
DA:586,1
DA:587,1
DA:588,1
DA:589,1
DA:590,1
DA:591,1
DA:592,1
DA:593,1
DA:594,1
DA:595,1
DA:596,1
DA:597,1
DA:598,1
DA:599,1
DA:600,1
DA:601,1
DA:602,1
DA:603,1
DA:604,1
DA:606,1
DA:607,1
DA:609,1
DA:610,1
DA:611,1
DA:612,1
DA:613,1
DA:614,1
DA:615,1
DA:616,1
DA:617,1
DA:618,1
DA:619,1
DA:620,1
DA:621,1
DA:624,1
DA:626,1
DA:627,1
DA:629,1
DA:630,1
DA:631,1
DA:632,1
DA:633,1
DA:635,1
DA:636,1
DA:637,1
DA:638,1
DA:639,1
DA:640,1
DA:641,1
DA:642,1
DA:643,1
DA:644,1
DA:645,1
DA:646,1
DA:647,1
DA:648,1
DA:649,1
DA:650,1
DA:651,1
DA:652,1
DA:653,1
DA:655,1
DA:656,1
DA:658,1
DA:659,1
DA:662,1
DA:664,1
DA:665,1
DA:668,1
DA:669,1
DA:670,1
DA:671,1
DA:672,1
DA:674,1
DA:675,1
DA:676,1
DA:677,1
DA:678,1
DA:680,1
DA:681,1
DA:682,1
DA:683,1
DA:684,1
DA:685,1
DA:686,1
DA:687,1
DA:688,1
DA:689,1
DA:690,1
DA:691,1
DA:692,1
DA:693,1
DA:694,1
DA:695,1
DA:696,1
DA:697,1
DA:698,1
DA:699,1
DA:701,1
DA:702,1
DA:704,1
DA:705,1
DA:706,1
DA:709,1
DA:711,1
DA:712,1
DA:715,1
DA:716,1
DA:717,1
DA:718,1
DA:719,1
DA:721,1
DA:722,1
DA:723,1
DA:724,1
DA:725,1
DA:727,1
DA:728,1
DA:729,1
DA:730,1
DA:731,1
DA:732,1
DA:733,1
DA:734,1
DA:735,1
DA:736,1
DA:737,1
DA:738,1
DA:739,1
DA:740,1
DA:741,1
DA:742,1
DA:743,1
DA:744,1
DA:745,1
DA:746,1
DA:748,1
DA:749,1
DA:751,1
DA:752,1
DA:753,1
BRF:0
BRH:0
LF:615
LH:609
end_of_record
SF:/Users/jeroen.vervaeke/git/github.com/mongodb/atlas-local-lib/src/client/get_mongodb_secret.rs
FN:6,_RINvNtNtCscJhqz4rleTI_11atlas_local6client18get_mongodb_secret18get_mongodb_secretNtNtNtB4_17get_deployment_id5tests10MockDockerNCNCNvMB1m_INtB4_6ClientB1i_E17get_deployment_id00NCB24_s_0EB6_
FN:6,_RINvNtNtCscJhqz4rleTI_11atlas_local6client18get_mongodb_secret18get_mongodb_secretNtNtNtB4_17get_deployment_id5tests10MockDockerNCNCNvMB1m_INtB4_6ClientB1i_E17get_deployment_id0s0_0NCB24_s1_0EB6_
FN:6,_RINvNtNtCscJhqz4rleTI_11atlas_local6client18get_mongodb_secret18get_mongodb_secretNtNtNtB4_21get_connection_string5tests10MockDockerNCNCNvMB1m_INtB4_6ClientB1i_E21get_connection_string00NCB28_s_0EB6_
FN:6,_RINvNtNtCscJhqz4rleTI_11atlas_local6client18get_mongodb_secret18get_mongodb_secretNtNtNtB4_21get_connection_string5tests10MockDockerNCNCNvMB1m_INtB4_6ClientB1i_E21get_connection_string0s0_0NCB28_s1_0EB6_
FN:11,_RNCINvNtNtCscJhqz4rleTI_11atlas_local6client18get_mongodb_secret18get_mongodb_secretNtNtNtB6_17get_deployment_id5tests10MockDockerNCNCNvMB1o_INtB6_6ClientB1k_E17get_deployment_id00NCB26_s_0E0B8_
FN:11,_RNCINvNtNtCscJhqz4rleTI_11atlas_local6client18get_mongodb_secret18get_mongodb_secretNtNtNtB6_17get_deployment_id5tests10MockDockerNCNCNvMB1o_INtB6_6ClientB1k_E17get_deployment_id0s0_0NCB26_s1_0E0B8_
FN:11,_RNCINvNtNtCscJhqz4rleTI_11atlas_local6client18get_mongodb_secret18get_mongodb_secretNtNtNtB6_21get_connection_string5tests10MockDockerNCNCNvMB1o_INtB6_6ClientB1k_E21get_connection_string00NCB2a_s_0E0B8_
FN:11,_RNCINvNtNtCscJhqz4rleTI_11atlas_local6client18get_mongodb_secret18get_mongodb_secretNtNtNtB6_21get_connection_string5tests10MockDockerNCNCNvMB1o_INtB6_6ClientB1k_E21get_connection_string0s0_0NCB2a_s1_0E0B8_
FNDA:11,_RINvNtNtCscJhqz4rleTI_11atlas_local6client18get_mongodb_secret18get_mongodb_secretNtNtNtB4_17get_deployment_id5tests10MockDockerNCNCNvMB1m_INtB4_6ClientB1i_E17get_deployment_id00NCB24_s_0EB6_
FNDA:10,_RINvNtNtCscJhqz4rleTI_11atlas_local6client18get_mongodb_secret18get_mongodb_secretNtNtNtB4_17get_deployment_id5tests10MockDockerNCNCNvMB1m_INtB4_6ClientB1i_E17get_deployment_id0s0_0NCB24_s1_0EB6_
FNDA:3,_RINvNtNtCscJhqz4rleTI_11atlas_local6client18get_mongodb_secret18get_mongodb_secretNtNtNtB4_21get_connection_string5tests10MockDockerNCNCNvMB1m_INtB4_6ClientB1i_E21get_connection_string00NCB28_s_0EB6_
FNDA:3,_RINvNtNtCscJhqz4rleTI_11atlas_local6client18get_mongodb_secret18get_mongodb_secretNtNtNtB4_21get_connection_string5tests10MockDockerNCNCNvMB1m_INtB4_6ClientB1i_E21get_connection_string0s0_0NCB28_s1_0EB6_
FNDA:11,_RNCINvNtNtCscJhqz4rleTI_11atlas_local6client18get_mongodb_secret18get_mongodb_secretNtNtNtB6_17get_deployment_id5tests10MockDockerNCNCNvMB1o_INtB6_6ClientB1k_E17get_deployment_id00NCB26_s_0E0B8_
FNDA:10,_RNCINvNtNtCscJhqz4rleTI_11atlas_local6client18get_mongodb_secret18get_mongodb_secretNtNtNtB6_17get_deployment_id5tests10MockDockerNCNCNvMB1o_INtB6_6ClientB1k_E17get_deployment_id0s0_0NCB26_s1_0E0B8_
FNDA:3,_RNCINvNtNtCscJhqz4rleTI_11atlas_local6client18get_mongodb_secret18get_mongodb_secretNtNtNtB6_21get_connection_string5tests10MockDockerNCNCNvMB1o_INtB6_6ClientB1k_E21get_connection_string00NCB2a_s_0E0B8_
FNDA:3,_RNCINvNtNtCscJhqz4rleTI_11atlas_local6client18get_mongodb_secret18get_mongodb_secretNtNtNtB6_21get_connection_string5tests10MockDockerNCNCNvMB1o_INtB6_6ClientB1k_E21get_connection_string0s0_0NCB2a_s1_0E0B8_
FNF:2
FNH:2
DA:6,27
DA:7,27
DA:8,27
DA:9,27
DA:10,27
DA:11,27
DA:13,27
DA:14,9
DA:15,18
DA:18,18
DA:19,5
DA:20,5
DA:21,5
DA:22,5
DA:23,5
DA:24,5
DA:26,3
DA:27,3
DA:28,0
DA:29,13
DA:32,13
DA:33,27
BRF:0
BRH:0
LF:23
LH:22
end_of_record
SF:/Users/jeroen.vervaeke/git/github.com/mongodb/atlas-local-lib/src/client/list_deployments.rs
FN:79,_RINvMs4_NtNtNtNtNtCscJhqz4rleTI_11atlas_local6client16list_deployments5tests38___mock_MockDocker_DockerListContainers17___list_containersNtB6_6Common5timesjEBg_
FN:79,_RINvMs6_NtNtNtNtNtCscJhqz4rleTI_11atlas_local6client16list_deployments5tests38___mock_MockDocker_DockerListContainers17___list_containersNtB6_11Expectation5timesjEBg_
FN:79,_RINvMs6_NtNtNtNtNtCscJhqz4rleTI_11atlas_local6client16list_deployments5tests38___mock_MockDocker_DockerListContainers17___list_containersNtB6_11Expectation9returningNCNCNvBa_s_21test_list_deployments00EBg_
FN:79,_RINvMs6_NtNtNtNtNtCscJhqz4rleTI_11atlas_local6client16list_deployments5tests38___mock_MockDocker_DockerListContainers17___list_containersNtB6_11Expectation9returningNCNCNvBa_s_27test_list_deployments_empty00EBg_
FN:79,_RINvMs6_NtNtNtNtNtCscJhqz4rleTI_11atlas_local6client16list_deployments5tests38___mock_MockDocker_DockerListContainers17___list_containersNtB6_11Expectation9returningNCNCNvBa_s_43test_list_deployments_list_containers_error00EBg_
FN:79,_RINvMs6_NtNtNtNtNtCscJhqz4rleTI_11atlas_local6client16list_deployments5tests38___mock_MockDocker_DockerListContainers17___list_containersNtB6_11Expectation9returningNCNCNvBa_s_45test_list_deployments_inspect_container_error00EBg_
FN:79,_RINvMs6_NtNtNtNtNtCscJhqz4rleTI_11atlas_local6client16list_deployments5tests38___mock_MockDocker_DockerListContainers17___list_containersNtB6_11Expectation9returningNCNCNvBa_s_48test_list_deployments_skip_containers_without_id00EBg_
FN:79,_RNCNvMs0_NtNtNtNtNtCscJhqz4rleTI_11atlas_local6client16list_deployments5tests38___mock_MockDocker_DockerListContainers17___list_containersNtB7_7Matcher7matches0Bh_
FN:79,_RNCNvMsa_NtNtNtNtNtCscJhqz4rleTI_11atlas_local6client16list_deployments5tests38___mock_MockDocker_DockerListContainers17___list_containersNtB7_12Expectations4call0Bh_
FN:79,_RNCNvMsa_NtNtNtNtNtCscJhqz4rleTI_11atlas_local6client16list_deployments5tests38___mock_MockDocker_DockerListContainers17___list_containersNtB7_12Expectations4calls_0Bh_
FN:14,_RNCNvMNtNtCscJhqz4rleTI_11atlas_local6client16list_deploymentsINtB6_6ClientNtNtB4_5tests10MockDockerE16list_deployments0B8_
FN:79,_RINvMs4_NtNtNtNtNtCscJhqz4rleTI_11atlas_local6client16list_deployments5tests40___mock_MockDocker_DockerInspectContainer19___inspect_containerNtB6_6Common4withINtNtCsaS4gknD0Sqc_10predicates3ord11EqPredicateReEIB2x_INtNtCsaNl6UpbT7bw_4core6option6OptionNtNtCsiAmkw3NBFjt_13bollard_stubs16query_parameters23InspectContainerOptionsEEEBg_
FN:79,_RINvMs4_NtNtNtNtNtCscJhqz4rleTI_11atlas_local6client16list_deployments5tests40___mock_MockDocker_DockerInspectContainer19___inspect_containerNtB6_6Common5timesjEBg_
FN:79,_RINvMs6_NtNtNtNtNtCscJhqz4rleTI_11atlas_local6client16list_deployments5tests40___mock_MockDocker_DockerInspectContainer19___inspect_containerNtB6_11Expectation4withINtNtCsaS4gknD0Sqc_10predicates3ord11EqPredicateReEIB2D_INtNtCsaNl6UpbT7bw_4core6option6OptionNtNtCsiAmkw3NBFjt_13bollard_stubs16query_parameters23InspectContainerOptionsEEEBg_
FN:79,_RINvMs6_NtNtNtNtNtCscJhqz4rleTI_11atlas_local6client16list_deployments5tests40___mock_MockDocker_DockerInspectContainer19___inspect_containerNtB6_11Expectation5timesjEBg_
FN:79,_RINvMs6_NtNtNtNtNtCscJhqz4rleTI_11atlas_local6client16list_deployments5tests40___mock_MockDocker_DockerInspectContainer19___inspect_containerNtB6_11Expectation9returningNCNCNvBa_s_21test_list_deployments0s0_0EBg_
FN:79,_RINvMs6_NtNtNtNtNtCscJhqz4rleTI_11atlas_local6client16list_deployments5tests40___mock_MockDocker_DockerInspectContainer19___inspect_containerNtB6_11Expectation9returningNCNCNvBa_s_21test_list_deployments0s_0EBg_
FN:79,_RINvMs6_NtNtNtNtNtCscJhqz4rleTI_11atlas_local6client16list_deployments5tests40___mock_MockDocker_DockerInspectContainer19___inspect_containerNtB6_11Expectation9returningNCNCNvBa_s_45test_list_deployments_inspect_container_error0s_0EBg_
FN:79,_RINvMs6_NtNtNtNtNtCscJhqz4rleTI_11atlas_local6client16list_deployments5tests40___mock_MockDocker_DockerInspectContainer19___inspect_containerNtB6_11Expectation9returningNCNCNvBa_s_48test_list_deployments_skip_containers_without_id0s_0EBg_
FN:79,_RNCNvMs0_NtNtNtNtNtCscJhqz4rleTI_11atlas_local6client16list_deployments5tests40___mock_MockDocker_DockerInspectContainer19___inspect_containerNtB7_7Matcher7matches0Bh_
FN:79,_RNCNvMsa_NtNtNtNtNtCscJhqz4rleTI_11atlas_local6client16list_deployments5tests40___mock_MockDocker_DockerInspectContainer19___inspect_containerNtB7_12Expectations4call0Bh_
FN:79,_RNCNvMsa_NtNtNtNtNtCscJhqz4rleTI_11atlas_local6client16list_deployments5tests40___mock_MockDocker_DockerInspectContainer19___inspect_containerNtB7_12Expectations4calls_0Bh_
FN:79,_RNvMNtNtNtNtNtCscJhqz4rleTI_11atlas_local6client16list_deployments5tests40___mock_MockDocker_DockerInspectContainer19___inspect_containerNtB2_5Rfunc8call_mut
FN:79,_RNvMs0_NtNtNtNtNtCscJhqz4rleTI_11atlas_local6client16list_deployments5tests40___mock_MockDocker_DockerInspectContainer19___inspect_containerNtB5_7Matcher7matches
FN:79,_RNvMs4_NtNtNtNtNtCscJhqz4rleTI_11atlas_local6client16list_deployments5tests40___mock_MockDocker_DockerInspectContainer19___inspect_containerNtB5_6Common15verify_sequence
FN:79,_RNvMs4_NtNtNtNtNtCscJhqz4rleTI_11atlas_local6client16list_deployments5tests40___mock_MockDocker_DockerInspectContainer19___inspect_containerNtB5_6Common16satisfy_sequence
FN:79,_RNvMs4_NtNtNtNtNtCscJhqz4rleTI_11atlas_local6client16list_deployments5tests40___mock_MockDocker_DockerInspectContainer19___inspect_containerNtB5_6Common4call
FN:79,_RNvMs4_NtNtNtNtNtCscJhqz4rleTI_11atlas_local6client16list_deployments5tests40___mock_MockDocker_DockerInspectContainer19___inspect_containerNtB5_6Common7is_done
FN:79,_RNvMs4_NtNtNtNtNtCscJhqz4rleTI_11atlas_local6client16list_deployments5tests40___mock_MockDocker_DockerInspectContainer19___inspect_containerNtB5_6Common7matches
FN:79,_RNvMs6_NtNtNtNtNtCscJhqz4rleTI_11atlas_local6client16list_deployments5tests40___mock_MockDocker_DockerInspectContainer19___inspect_containerNtB5_11Expectation4call
FN:79,_RNvMs6_NtNtNtNtNtCscJhqz4rleTI_11atlas_local6client16list_deployments5tests40___mock_MockDocker_DockerInspectContainer19___inspect_containerNtB5_11Expectation7is_done
FN:79,_RNvMs6_NtNtNtNtNtCscJhqz4rleTI_11atlas_local6client16list_deployments5tests40___mock_MockDocker_DockerInspectContainer19___inspect_containerNtB5_11Expectation7matches
FN:79,_RNvMs8_NtNtNtNtNtCscJhqz4rleTI_11atlas_local6client16list_deployments5tests40___mock_MockDocker_DockerInspectContainer19___inspect_containerNtB5_12Expectations3new
FN:79,_RNvMs8_NtNtNtNtNtCscJhqz4rleTI_11atlas_local6client16list_deployments5tests40___mock_MockDocker_DockerInspectContainer19___inspect_containerNtB5_12Expectations6expect
FN:79,_RNvMsa_NtNtNtNtNtCscJhqz4rleTI_11atlas_local6client16list_deployments5tests40___mock_MockDocker_DockerInspectContainer19___inspect_containerNtB5_12Expectations4call
FN:79,_RNvXs1_NtNtNtNtNtCscJhqz4rleTI_11atlas_local6client16list_deployments5tests40___mock_MockDocker_DockerInspectContainer19___inspect_containerNtB5_7MatcherNtNtCsaNl6UpbT7bw_4core7default7Default7default
FN:79,_RNvXs2_NtNtNtNtNtCscJhqz4rleTI_11atlas_local6client16list_deployments5tests40___mock_MockDocker_DockerInspectContainer19___inspect_containerNtB5_7MatcherNtNtCsaNl6UpbT7bw_4core3fmt7Display3fmt
FN:79,_RNvXs3_NtNtNtNtNtCscJhqz4rleTI_11atlas_local6client16list_deployments5tests40___mock_MockDocker_DockerInspectContainer19___inspect_containerNtB5_6CommonNtNtCsaNl6UpbT7bw_4core7default7Default7default
FN:79,_RNvXs7_NtNtNtNtNtCscJhqz4rleTI_11atlas_local6client16list_deployments5tests40___mock_MockDocker_DockerInspectContainer19___inspect_containerNtB5_11ExpectationNtNtCsaNl6UpbT7bw_4core7default7Default7default
FN:79,_RNvXs9_NtNtNtNtNtCscJhqz4rleTI_11atlas_local6client16list_deployments5tests40___mock_MockDocker_DockerInspectContainer19___inspect_containerNtB5_12ExpectationsNtNtCsaNl6UpbT7bw_4core7default7Default7default
FN:79,_RNvXs_NtNtNtNtNtCscJhqz4rleTI_11atlas_local6client16list_deployments5tests40___mock_MockDocker_DockerInspectContainer19___inspect_containerNtB4_5RfuncNtNtCsaNl6UpbT7bw_4core7default7Default7default
FN:14,_RNvMNtNtCscJhqz4rleTI_11atlas_local6client16list_deploymentsINtB4_6ClientNtNtB2_5tests10MockDockerE16list_deploymentsB6_
FN:79,_RNvXs5_NtNtNtNtNtCscJhqz4rleTI_11atlas_local6client16list_deployments5tests38___mock_MockDocker_DockerListContainers17___list_containersNtB5_6CommonNtNtNtCsaNl6UpbT7bw_4core3ops4drop4Drop4drop
FN:79,_RNvXs5_NtNtNtNtNtCscJhqz4rleTI_11atlas_local6client16list_deployments5tests40___mock_MockDocker_DockerInspectContainer19___inspect_containerNtB5_6CommonNtNtNtCsaNl6UpbT7bw_4core3ops4drop4Drop4drop
FN:79,_RINvMs4_NtNtNtNtNtCscJhqz4rleTI_11atlas_local6client16list_deployments5tests38___mock_MockDocker_DockerListContainers17___list_containersNtB6_6Common4withpEBg_
FN:79,_RINvMs4_NtNtNtNtNtCscJhqz4rleTI_11atlas_local6client16list_deployments5tests38___mock_MockDocker_DockerListContainers17___list_containersNtB6_6Common5withfpEBg_
FN:79,_RINvMs4_NtNtNtNtNtCscJhqz4rleTI_11atlas_local6client16list_deployments5tests38___mock_MockDocker_DockerListContainers17___list_containersNtB6_6Common8withf_stpEBg_
FN:79,_RINvMs4_NtNtNtNtNtCscJhqz4rleTI_11atlas_local6client16list_deployments5tests40___mock_MockDocker_DockerInspectContainer19___inspect_containerNtB6_6Common5withfpEBg_
FN:79,_RINvMs4_NtNtNtNtNtCscJhqz4rleTI_11atlas_local6client16list_deployments5tests40___mock_MockDocker_DockerInspectContainer19___inspect_containerNtB6_6Common8withf_stpEBg_
FN:79,_RINvMs6_NtNtNtNtNtCscJhqz4rleTI_11atlas_local6client16list_deployments5tests38___mock_MockDocker_DockerListContainers17___list_containersNtB6_11Expectation11return_oncepEBg_
FN:79,_RINvMs6_NtNtNtNtNtCscJhqz4rleTI_11atlas_local6client16list_deployments5tests38___mock_MockDocker_DockerListContainers17___list_containersNtB6_11Expectation12return_constpEBg_
FN:79,_RINvMs6_NtNtNtNtNtCscJhqz4rleTI_11atlas_local6client16list_deployments5tests38___mock_MockDocker_DockerListContainers17___list_containersNtB6_11Expectation12returning_stpEBg_
FN:79,_RINvMs6_NtNtNtNtNtCscJhqz4rleTI_11atlas_local6client16list_deployments5tests38___mock_MockDocker_DockerListContainers17___list_containersNtB6_11Expectation14return_once_stpEBg_
FN:79,_RINvMs6_NtNtNtNtNtCscJhqz4rleTI_11atlas_local6client16list_deployments5tests38___mock_MockDocker_DockerListContainers17___list_containersNtB6_11Expectation15return_const_stpEBg_
FN:79,_RINvMs6_NtNtNtNtNtCscJhqz4rleTI_11atlas_local6client16list_deployments5tests38___mock_MockDocker_DockerListContainers17___list_containersNtB6_11Expectation4withpEBg_
FN:79,_RINvMs6_NtNtNtNtNtCscJhqz4rleTI_11atlas_local6client16list_deployments5tests38___mock_MockDocker_DockerListContainers17___list_containersNtB6_11Expectation5withfpEBg_
FN:79,_RINvMs6_NtNtNtNtNtCscJhqz4rleTI_11atlas_local6client16list_deployments5tests38___mock_MockDocker_DockerListContainers17___list_containersNtB6_11Expectation8withf_stpEBg_
FN:79,_RINvMs6_NtNtNtNtNtCscJhqz4rleTI_11atlas_local6client16list_deployments5tests40___mock_MockDocker_DockerInspectContainer19___inspect_containerNtB6_11Expectation11return_oncepEBg_
FN:79,_RINvMs6_NtNtNtNtNtCscJhqz4rleTI_11atlas_local6client16list_deployments5tests40___mock_MockDocker_DockerInspectContainer19___inspect_containerNtB6_11Expectation12return_constpEBg_
FN:79,_RINvMs6_NtNtNtNtNtCscJhqz4rleTI_11atlas_local6client16list_deployments5tests40___mock_MockDocker_DockerInspectContainer19___inspect_containerNtB6_11Expectation12returning_stpEBg_
FN:79,_RINvMs6_NtNtNtNtNtCscJhqz4rleTI_11atlas_local6client16list_deployments5tests40___mock_MockDocker_DockerInspectContainer19___inspect_containerNtB6_11Expectation14return_once_stpEBg_
FN:79,_RINvMs6_NtNtNtNtNtCscJhqz4rleTI_11atlas_local6client16list_deployments5tests40___mock_MockDocker_DockerInspectContainer19___inspect_containerNtB6_11Expectation15return_const_stpEBg_
FN:79,_RINvMs6_NtNtNtNtNtCscJhqz4rleTI_11atlas_local6client16list_deployments5tests40___mock_MockDocker_DockerInspectContainer19___inspect_containerNtB6_11Expectation5withfpEBg_
FN:79,_RINvMs6_NtNtNtNtNtCscJhqz4rleTI_11atlas_local6client16list_deployments5tests40___mock_MockDocker_DockerInspectContainer19___inspect_containerNtB6_11Expectation8withf_stpEBg_
FN:79,_RNCINvMs6_NtNtNtNtNtCscJhqz4rleTI_11atlas_local6client16list_deployments5tests38___mock_MockDocker_DockerListContainers17___list_containersNtB8_11Expectation12return_constpE0Bi_
FN:79,_RNCINvMs6_NtNtNtNtNtCscJhqz4rleTI_11atlas_local6client16list_deployments5tests38___mock_MockDocker_DockerListContainers17___list_containersNtB8_11Expectation15return_const_stpE0Bi_
FN:79,_RNCINvMs6_NtNtNtNtNtCscJhqz4rleTI_11atlas_local6client16list_deployments5tests40___mock_MockDocker_DockerInspectContainer19___inspect_containerNtB8_11Expectation12return_constpE0Bi_
FN:79,_RNCINvMs6_NtNtNtNtNtCscJhqz4rleTI_11atlas_local6client16list_deployments5tests40___mock_MockDocker_DockerInspectContainer19___inspect_containerNtB8_11Expectation15return_const_stpE0Bi_
FN:79,_RNvMs0_NtNtNtCscJhqz4rleTI_11atlas_local6client16list_deployments5testsNtB5_31MockDocker_DockerListContainers10checkpoint
FN:79,_RNvMs2_NtNtNtCscJhqz4rleTI_11atlas_local6client16list_deployments5testsNtB5_33MockDocker_DockerInspectContainer10checkpoint
FN:79,_RNvMs3_NtNtNtCscJhqz4rleTI_11atlas_local6client16list_deployments5testsNtB5_10MockDocker10checkpoint
FN:79,_RNvMs4_NtNtNtNtNtCscJhqz4rleTI_11atlas_local6client16list_deployments5tests38___mock_MockDocker_DockerListContainers17___list_containersNtB5_6Common11in_sequence
FN:79,_RNvMs4_NtNtNtNtNtCscJhqz4rleTI_11atlas_local6client16list_deployments5tests38___mock_MockDocker_DockerListContainers17___list_containersNtB5_6Common5never
FN:79,_RNvMs4_NtNtNtNtNtCscJhqz4rleTI_11atlas_local6client16list_deployments5tests40___mock_MockDocker_DockerInspectContainer19___inspect_containerNtB5_6Common11in_sequence
FN:79,_RNvMs4_NtNtNtNtNtCscJhqz4rleTI_11atlas_local6client16list_deployments5tests40___mock_MockDocker_DockerInspectContainer19___inspect_containerNtB5_6Common5never
FN:79,_RNvMs6_NtNtNtNtNtCscJhqz4rleTI_11atlas_local6client16list_deployments5tests38___mock_MockDocker_DockerListContainers17___list_containersNtB5_11Expectation11in_sequence
FN:79,_RNvMs6_NtNtNtNtNtCscJhqz4rleTI_11atlas_local6client16list_deployments5tests38___mock_MockDocker_DockerListContainers17___list_containersNtB5_11Expectation3new
FN:79,_RNvMs6_NtNtNtNtNtCscJhqz4rleTI_11atlas_local6client16list_deployments5tests38___mock_MockDocker_DockerListContainers17___list_containersNtB5_11Expectation4once
FN:79,_RNvMs6_NtNtNtNtNtCscJhqz4rleTI_11atlas_local6client16list_deployments5tests38___mock_MockDocker_DockerListContainers17___list_containersNtB5_11Expectation5never
FN:79,_RNvMs6_NtNtNtNtNtCscJhqz4rleTI_11atlas_local6client16list_deployments5tests40___mock_MockDocker_DockerInspectContainer19___inspect_containerNtB5_11Expectation11in_sequence
FN:79,_RNvMs6_NtNtNtNtNtCscJhqz4rleTI_11atlas_local6client16list_deployments5tests40___mock_MockDocker_DockerInspectContainer19___inspect_containerNtB5_11Expectation3new
FN:79,_RNvMs6_NtNtNtNtNtCscJhqz4rleTI_11atlas_local6client16list_deployments5tests40___mock_MockDocker_DockerInspectContainer19___inspect_containerNtB5_11Expectation4once
FN:79,_RNvMs6_NtNtNtNtNtCscJhqz4rleTI_11atlas_local6client16list_deployments5tests40___mock_MockDocker_DockerInspectContainer19___inspect_containerNtB5_11Expectation5never
FN:79,_RNvMs8_NtNtNtNtNtCscJhqz4rleTI_11atlas_local6client16list_deployments5tests38___mock_MockDocker_DockerListContainers17___list_containersNtB5_12Expectations10checkpoint
FN:79,_RNvMs8_NtNtNtNtNtCscJhqz4rleTI_11atlas_local6client16list_deployments5tests40___mock_MockDocker_DockerInspectContainer19___inspect_containerNtB5_12Expectations10checkpoint
FN:79,_RNvMNtNtNtNtNtCscJhqz4rleTI_11atlas_local6client16list_deployments5tests38___mock_MockDocker_DockerListContainers17___list_containersNtB2_5Rfunc8call_mut
FN:79,_RNvMs0_NtNtNtNtNtCscJhqz4rleTI_11atlas_local6client16list_deployments5tests38___mock_MockDocker_DockerListContainers17___list_containersNtB5_7Matcher7matches
FN:79,_RNvMs4_NtNtNtNtNtCscJhqz4rleTI_11atlas_local6client16list_deployments5tests38___mock_MockDocker_DockerListContainers17___list_containersNtB5_6Common15verify_sequence
FN:79,_RNvMs4_NtNtNtNtNtCscJhqz4rleTI_11atlas_local6client16list_deployments5tests38___mock_MockDocker_DockerListContainers17___list_containersNtB5_6Common16satisfy_sequence
FN:79,_RNvMs4_NtNtNtNtNtCscJhqz4rleTI_11atlas_local6client16list_deployments5tests38___mock_MockDocker_DockerListContainers17___list_containersNtB5_6Common4call
FN:79,_RNvMs4_NtNtNtNtNtCscJhqz4rleTI_11atlas_local6client16list_deployments5tests38___mock_MockDocker_DockerListContainers17___list_containersNtB5_6Common7is_done
FN:79,_RNvMs4_NtNtNtNtNtCscJhqz4rleTI_11atlas_local6client16list_deployments5tests38___mock_MockDocker_DockerListContainers17___list_containersNtB5_6Common7matches
FN:79,_RNvMs6_NtNtNtNtNtCscJhqz4rleTI_11atlas_local6client16list_deployments5tests38___mock_MockDocker_DockerListContainers17___list_containersNtB5_11Expectation4call
FN:79,_RNvMs6_NtNtNtNtNtCscJhqz4rleTI_11atlas_local6client16list_deployments5tests38___mock_MockDocker_DockerListContainers17___list_containersNtB5_11Expectation7is_done
FN:79,_RNvMs6_NtNtNtNtNtCscJhqz4rleTI_11atlas_local6client16list_deployments5tests38___mock_MockDocker_DockerListContainers17___list_containersNtB5_11Expectation7matches
FN:79,_RNvMs8_NtNtNtNtNtCscJhqz4rleTI_11atlas_local6client16list_deployments5tests38___mock_MockDocker_DockerListContainers17___list_containersNtB5_12Expectations3new
FN:79,_RNvMs8_NtNtNtNtNtCscJhqz4rleTI_11atlas_local6client16list_deployments5tests38___mock_MockDocker_DockerListContainers17___list_containersNtB5_12Expectations6expect
FN:79,_RNvMsa_NtNtNtNtNtCscJhqz4rleTI_11atlas_local6client16list_deployments5tests38___mock_MockDocker_DockerListContainers17___list_containersNtB5_12Expectations4call
FN:79,_RNvXs1_NtNtNtNtNtCscJhqz4rleTI_11atlas_local6client16list_deployments5tests38___mock_MockDocker_DockerListContainers17___list_containersNtB5_7MatcherNtNtCsaNl6UpbT7bw_4core7default7Default7default
FN:79,_RNvXs2_NtNtNtNtNtCscJhqz4rleTI_11atlas_local6client16list_deployments5tests38___mock_MockDocker_DockerListContainers17___list_containersNtB5_7MatcherNtNtCsaNl6UpbT7bw_4core3fmt7Display3fmt
FN:79,_RNvXs3_NtNtNtNtNtCscJhqz4rleTI_11atlas_local6client16list_deployments5tests38___mock_MockDocker_DockerListContainers17___list_containersNtB5_6CommonNtNtCsaNl6UpbT7bw_4core7default7Default7default
FN:79,_RNvXs7_NtNtNtNtNtCscJhqz4rleTI_11atlas_local6client16list_deployments5tests38___mock_MockDocker_DockerListContainers17___list_containersNtB5_11ExpectationNtNtCsaNl6UpbT7bw_4core7default7Default7default
FN:79,_RNvXs9_NtNtNtNtNtCscJhqz4rleTI_11atlas_local6client16list_deployments5tests38___mock_MockDocker_DockerListContainers17___list_containersNtB5_12ExpectationsNtNtCsaNl6UpbT7bw_4core7default7Default7default
FN:79,_RNvXs_NtNtNtNtNtCscJhqz4rleTI_11atlas_local6client16list_deployments5tests38___mock_MockDocker_DockerListContainers17___list_containersNtB4_5RfuncNtNtCsaNl6UpbT7bw_4core7default7Default7default
FN:79,_RNvMs3_NtNtNtCscJhqz4rleTI_11atlas_local6client16list_deployments5testsNtB5_10MockDocker3new
FN:79,_RNvMs5_NtNtNtCscJhqz4rleTI_11atlas_local6client16list_deployments5testsNtB5_10MockDocker22expect_list_containers
FN:79,_RNvMs7_NtNtNtCscJhqz4rleTI_11atlas_local6client16list_deployments5testsNtB5_10MockDocker24expect_inspect_container
FN:81,_RNvNtNtNtCscJhqz4rleTI_11atlas_local6client16list_deployments5tests24create_container_summary
FN:89,_RNvNtNtNtCscJhqz4rleTI_11atlas_local6client16list_deployments5tests33create_container_inspect_response
FN:114,_RNvNtNtNtCscJhqz4rleTI_11atlas_local6client16list_deployments5testss_21test_list_deployments
FN:174,_RNvNtNtNtCscJhqz4rleTI_11atlas_local6client16list_deployments5testss_27test_list_deployments_empty
FN:196,_RNvNtNtNtCscJhqz4rleTI_11atlas_local6client16list_deployments5testss_43test_list_deployments_list_containers_error
FN:225,_RNvNtNtNtCscJhqz4rleTI_11atlas_local6client16list_deployments5testss_45test_list_deployments_inspect_container_error
FN:265,_RNvNtNtNtCscJhqz4rleTI_11atlas_local6client16list_deployments5testss_48test_list_deployments_skip_containers_without_id
FN:79,_RNvXNtNtNtCscJhqz4rleTI_11atlas_local6client16list_deployments5testsNtB2_10MockDockerNtNtCsaNl6UpbT7bw_4core7default7Default7default
FN:79,_RNvXs1_NtNtNtCscJhqz4rleTI_11atlas_local6client16list_deployments5testsNtB5_33MockDocker_DockerInspectContainerNtNtCsaNl6UpbT7bw_4core7default7Default7default
FN:79,_RNvXs_NtNtNtCscJhqz4rleTI_11atlas_local6client16list_deployments5testsNtB4_31MockDocker_DockerListContainersNtNtCsaNl6UpbT7bw_4core7default7Default7default
FN:132,_RNCNCNvNtNtNtCscJhqz4rleTI_11atlas_local6client16list_deployments5testss_21test_list_deployments00Bb_
FN:150,_RNCNCNvNtNtNtCscJhqz4rleTI_11atlas_local6client16list_deployments5testss_21test_list_deployments0s0_0Bb_
FN:141,_RNCNCNvNtNtNtCscJhqz4rleTI_11atlas_local6client16list_deployments5testss_21test_list_deployments0s_0Bb_
FN:182,_RNCNCNvNtNtNtCscJhqz4rleTI_11atlas_local6client16list_deployments5testss_27test_list_deployments_empty00Bb_
FN:204,_RNCNCNvNtNtNtCscJhqz4rleTI_11atlas_local6client16list_deployments5testss_43test_list_deployments_list_containers_error00Bb_
FN:235,_RNCNCNvNtNtNtCscJhqz4rleTI_11atlas_local6client16list_deployments5testss_45test_list_deployments_inspect_container_error00Bb_
FN:244,_RNCNCNvNtNtNtCscJhqz4rleTI_11atlas_local6client16list_deployments5testss_45test_list_deployments_inspect_container_error0s_0Bb_
FN:284,_RNCNCNvNtNtNtCscJhqz4rleTI_11atlas_local6client16list_deployments5testss_48test_list_deployments_skip_containers_without_id00Bb_
FN:293,_RNCNCNvNtNtNtCscJhqz4rleTI_11atlas_local6client16list_deployments5testss_48test_list_deployments_skip_containers_without_id0s_0Bb_
FN:114,_RNCNvNtNtNtCscJhqz4rleTI_11atlas_local6client16list_deployments5testss_21test_list_deployments0B9_
FN:174,_RNCNvNtNtNtCscJhqz4rleTI_11atlas_local6client16list_deployments5testss_27test_list_deployments_empty0B9_
FN:196,_RNCNvNtNtNtCscJhqz4rleTI_11atlas_local6client16list_deployments5testss_43test_list_deployments_list_containers_error0B9_
FN:225,_RNCNvNtNtNtCscJhqz4rleTI_11atlas_local6client16list_deployments5testss_45test_list_deployments_inspect_container_error0B9_
FN:265,_RNCNvNtNtNtCscJhqz4rleTI_11atlas_local6client16list_deployments5testss_48test_list_deployments_skip_containers_without_id0B9_
FN:67,_RNCNvXs4_NtNtNtCscJhqz4rleTI_11atlas_local6client16list_deployments5testsNtB7_10MockDockerNtNtBd_6docker20DockerListContainers15list_containers0Bd_
FN:74,_RNCNvXs6_NtNtNtCscJhqz4rleTI_11atlas_local6client16list_deployments5testsNtB7_10MockDockerNtNtBd_6docker22DockerInspectContainer17inspect_container0Bd_
FNDA:5,_RINvMs4_NtNtNtNtNtCscJhqz4rleTI_11atlas_local6client16list_deployments5tests38___mock_MockDocker_DockerListContainers17___list_containersNtB6_6Common5timesjEBg_
FNDA:5,_RINvMs6_NtNtNtNtNtCscJhqz4rleTI_11atlas_local6client16list_deployments5tests38___mock_MockDocker_DockerListContainers17___list_containersNtB6_11Expectation5timesjEBg_
FNDA:1,_RINvMs6_NtNtNtNtNtCscJhqz4rleTI_11atlas_local6client16list_deployments5tests38___mock_MockDocker_DockerListContainers17___list_containersNtB6_11Expectation9returningNCNCNvBa_s_21test_list_deployments00EBg_
FNDA:1,_RINvMs6_NtNtNtNtNtCscJhqz4rleTI_11atlas_local6client16list_deployments5tests38___mock_MockDocker_DockerListContainers17___list_containersNtB6_11Expectation9returningNCNCNvBa_s_27test_list_deployments_empty00EBg_
FNDA:1,_RINvMs6_NtNtNtNtNtCscJhqz4rleTI_11atlas_local6client16list_deployments5tests38___mock_MockDocker_DockerListContainers17___list_containersNtB6_11Expectation9returningNCNCNvBa_s_43test_list_deployments_list_containers_error00EBg_
FNDA:1,_RINvMs6_NtNtNtNtNtCscJhqz4rleTI_11atlas_local6client16list_deployments5tests38___mock_MockDocker_DockerListContainers17___list_containersNtB6_11Expectation9returningNCNCNvBa_s_45test_list_deployments_inspect_container_error00EBg_
FNDA:1,_RINvMs6_NtNtNtNtNtCscJhqz4rleTI_11atlas_local6client16list_deployments5tests38___mock_MockDocker_DockerListContainers17___list_containersNtB6_11Expectation9returningNCNCNvBa_s_48test_list_deployments_skip_containers_without_id00EBg_
FNDA:0,_RNCNvMs0_NtNtNtNtNtCscJhqz4rleTI_11atlas_local6client16list_deployments5tests38___mock_MockDocker_DockerListContainers17___list_containersNtB7_7Matcher7matches0Bh_
FNDA:5,_RNCNvMsa_NtNtNtNtNtCscJhqz4rleTI_11atlas_local6client16list_deployments5tests38___mock_MockDocker_DockerListContainers17___list_containersNtB7_12Expectations4call0Bh_
FNDA:5,_RNCNvMsa_NtNtNtNtNtCscJhqz4rleTI_11atlas_local6client16list_deployments5tests38___mock_MockDocker_DockerListContainers17___list_containersNtB7_12Expectations4calls_0Bh_
FNDA:5,_RNCNvMNtNtCscJhqz4rleTI_11atlas_local6client16list_deploymentsINtB6_6ClientNtNtB4_5tests10MockDockerE16list_deployments0B8_
FNDA:4,_RINvMs4_NtNtNtNtNtCscJhqz4rleTI_11atlas_local6client16list_deployments5tests40___mock_MockDocker_DockerInspectContainer19___inspect_containerNtB6_6Common4withINtNtCsaS4gknD0Sqc_10predicates3ord11EqPredicateReEIB2x_INtNtCsaNl6UpbT7bw_4core6option6OptionNtNtCsiAmkw3NBFjt_13bollard_stubs16query_parameters23InspectContainerOptionsEEEBg_
FNDA:4,_RINvMs4_NtNtNtNtNtCscJhqz4rleTI_11atlas_local6client16list_deployments5tests40___mock_MockDocker_DockerInspectContainer19___inspect_containerNtB6_6Common5timesjEBg_
FNDA:4,_RINvMs6_NtNtNtNtNtCscJhqz4rleTI_11atlas_local6client16list_deployments5tests40___mock_MockDocker_DockerInspectContainer19___inspect_containerNtB6_11Expectation4withINtNtCsaS4gknD0Sqc_10predicates3ord11EqPredicateReEIB2D_INtNtCsaNl6UpbT7bw_4core6option6OptionNtNtCsiAmkw3NBFjt_13bollard_stubs16query_parameters23InspectContainerOptionsEEEBg_
FNDA:4,_RINvMs6_NtNtNtNtNtCscJhqz4rleTI_11atlas_local6client16list_deployments5tests40___mock_MockDocker_DockerInspectContainer19___inspect_containerNtB6_11Expectation5timesjEBg_
FNDA:1,_RINvMs6_NtNtNtNtNtCscJhqz4rleTI_11atlas_local6client16list_deployments5tests40___mock_MockDocker_DockerInspectContainer19___inspect_containerNtB6_11Expectation9returningNCNCNvBa_s_21test_list_deployments0s0_0EBg_
FNDA:1,_RINvMs6_NtNtNtNtNtCscJhqz4rleTI_11atlas_local6client16list_deployments5tests40___mock_MockDocker_DockerInspectContainer19___inspect_containerNtB6_11Expectation9returningNCNCNvBa_s_21test_list_deployments0s_0EBg_
FNDA:1,_RINvMs6_NtNtNtNtNtCscJhqz4rleTI_11atlas_local6client16list_deployments5tests40___mock_MockDocker_DockerInspectContainer19___inspect_containerNtB6_11Expectation9returningNCNCNvBa_s_45test_list_deployments_inspect_container_error0s_0EBg_
FNDA:1,_RINvMs6_NtNtNtNtNtCscJhqz4rleTI_11atlas_local6client16list_deployments5tests40___mock_MockDocker_DockerInspectContainer19___inspect_containerNtB6_11Expectation9returningNCNCNvBa_s_48test_list_deployments_skip_containers_without_id0s_0EBg_
FNDA:9,_RNCNvMs0_NtNtNtNtNtCscJhqz4rleTI_11atlas_local6client16list_deployments5tests40___mock_MockDocker_DockerInspectContainer19___inspect_containerNtB7_7Matcher7matches0Bh_
FNDA:5,_RNCNvMsa_NtNtNtNtNtCscJhqz4rleTI_11atlas_local6client16list_deployments5tests40___mock_MockDocker_DockerInspectContainer19___inspect_containerNtB7_12Expectations4call0Bh_
FNDA:4,_RNCNvMsa_NtNtNtNtNtCscJhqz4rleTI_11atlas_local6client16list_deployments5tests40___mock_MockDocker_DockerInspectContainer19___inspect_containerNtB7_12Expectations4calls_0Bh_
FNDA:4,_RNvMNtNtNtNtNtCscJhqz4rleTI_11atlas_local6client16list_deployments5tests40___mock_MockDocker_DockerInspectContainer19___inspect_containerNtB2_5Rfunc8call_mut
FNDA:5,_RNvMs0_NtNtNtNtNtCscJhqz4rleTI_11atlas_local6client16list_deployments5tests40___mock_MockDocker_DockerInspectContainer19___inspect_containerNtB5_7Matcher7matches
FNDA:4,_RNvMs4_NtNtNtNtNtCscJhqz4rleTI_11atlas_local6client16list_deployments5tests40___mock_MockDocker_DockerInspectContainer19___inspect_containerNtB5_6Common15verify_sequence
FNDA:4,_RNvMs4_NtNtNtNtNtCscJhqz4rleTI_11atlas_local6client16list_deployments5tests40___mock_MockDocker_DockerInspectContainer19___inspect_containerNtB5_6Common16satisfy_sequence
FNDA:4,_RNvMs4_NtNtNtNtNtCscJhqz4rleTI_11atlas_local6client16list_deployments5tests40___mock_MockDocker_DockerInspectContainer19___inspect_containerNtB5_6Common4call
FNDA:4,_RNvMs4_NtNtNtNtNtCscJhqz4rleTI_11atlas_local6client16list_deployments5tests40___mock_MockDocker_DockerInspectContainer19___inspect_containerNtB5_6Common7is_done
FNDA:5,_RNvMs4_NtNtNtNtNtCscJhqz4rleTI_11atlas_local6client16list_deployments5tests40___mock_MockDocker_DockerInspectContainer19___inspect_containerNtB5_6Common7matches
FNDA:4,_RNvMs6_NtNtNtNtNtCscJhqz4rleTI_11atlas_local6client16list_deployments5tests40___mock_MockDocker_DockerInspectContainer19___inspect_containerNtB5_11Expectation4call
FNDA:4,_RNvMs6_NtNtNtNtNtCscJhqz4rleTI_11atlas_local6client16list_deployments5tests40___mock_MockDocker_DockerInspectContainer19___inspect_containerNtB5_11Expectation7is_done
FNDA:5,_RNvMs6_NtNtNtNtNtCscJhqz4rleTI_11atlas_local6client16list_deployments5tests40___mock_MockDocker_DockerInspectContainer19___inspect_containerNtB5_11Expectation7matches
FNDA:5,_RNvMs8_NtNtNtNtNtCscJhqz4rleTI_11atlas_local6client16list_deployments5tests40___mock_MockDocker_DockerInspectContainer19___inspect_containerNtB5_12Expectations3new
FNDA:4,_RNvMs8_NtNtNtNtNtCscJhqz4rleTI_11atlas_local6client16list_deployments5tests40___mock_MockDocker_DockerInspectContainer19___inspect_containerNtB5_12Expectations6expect
FNDA:4,_RNvMsa_NtNtNtNtNtCscJhqz4rleTI_11atlas_local6client16list_deployments5tests40___mock_MockDocker_DockerInspectContainer19___inspect_containerNtB5_12Expectations4call
FNDA:4,_RNvXs1_NtNtNtNtNtCscJhqz4rleTI_11atlas_local6client16list_deployments5tests40___mock_MockDocker_DockerInspectContainer19___inspect_containerNtB5_7MatcherNtNtCsaNl6UpbT7bw_4core7default7Default7default
FNDA:4,_RNvXs2_NtNtNtNtNtCscJhqz4rleTI_11atlas_local6client16list_deployments5tests40___mock_MockDocker_DockerInspectContainer19___inspect_containerNtB5_7MatcherNtNtCsaNl6UpbT7bw_4core3fmt7Display3fmt
FNDA:4,_RNvXs3_NtNtNtNtNtCscJhqz4rleTI_11atlas_local6client16list_deployments5tests40___mock_MockDocker_DockerInspectContainer19___inspect_containerNtB5_6CommonNtNtCsaNl6UpbT7bw_4core7default7Default7default
FNDA:4,_RNvXs7_NtNtNtNtNtCscJhqz4rleTI_11atlas_local6client16list_deployments5tests40___mock_MockDocker_DockerInspectContainer19___inspect_containerNtB5_11ExpectationNtNtCsaNl6UpbT7bw_4core7default7Default7default
FNDA:5,_RNvXs9_NtNtNtNtNtCscJhqz4rleTI_11atlas_local6client16list_deployments5tests40___mock_MockDocker_DockerInspectContainer19___inspect_containerNtB5_12ExpectationsNtNtCsaNl6UpbT7bw_4core7default7Default7default
FNDA:4,_RNvXs_NtNtNtNtNtCscJhqz4rleTI_11atlas_local6client16list_deployments5tests40___mock_MockDocker_DockerInspectContainer19___inspect_containerNtB4_5RfuncNtNtCsaNl6UpbT7bw_4core7default7Default7default
FNDA:5,_RNvMNtNtCscJhqz4rleTI_11atlas_local6client16list_deploymentsINtB4_6ClientNtNtB2_5tests10MockDockerE16list_deploymentsB6_
FNDA:5,_RNvXs5_NtNtNtNtNtCscJhqz4rleTI_11atlas_local6client16list_deployments5tests38___mock_MockDocker_DockerListContainers17___list_containersNtB5_6CommonNtNtNtCsaNl6UpbT7bw_4core3ops4drop4Drop4drop
FNDA:4,_RNvXs5_NtNtNtNtNtCscJhqz4rleTI_11atlas_local6client16list_deployments5tests40___mock_MockDocker_DockerInspectContainer19___inspect_containerNtB5_6CommonNtNtNtCsaNl6UpbT7bw_4core3ops4drop4Drop4drop
FNDA:0,_RINvMs4_NtNtNtNtNtCscJhqz4rleTI_11atlas_local6client16list_deployments5tests38___mock_MockDocker_DockerListContainers17___list_containersNtB6_6Common4withpEBg_
FNDA:0,_RINvMs4_NtNtNtNtNtCscJhqz4rleTI_11atlas_local6client16list_deployments5tests38___mock_MockDocker_DockerListContainers17___list_containersNtB6_6Common5withfpEBg_
FNDA:0,_RINvMs4_NtNtNtNtNtCscJhqz4rleTI_11atlas_local6client16list_deployments5tests38___mock_MockDocker_DockerListContainers17___list_containersNtB6_6Common8withf_stpEBg_
FNDA:0,_RINvMs4_NtNtNtNtNtCscJhqz4rleTI_11atlas_local6client16list_deployments5tests40___mock_MockDocker_DockerInspectContainer19___inspect_containerNtB6_6Common5withfpEBg_
FNDA:0,_RINvMs4_NtNtNtNtNtCscJhqz4rleTI_11atlas_local6client16list_deployments5tests40___mock_MockDocker_DockerInspectContainer19___inspect_containerNtB6_6Common8withf_stpEBg_
FNDA:0,_RINvMs6_NtNtNtNtNtCscJhqz4rleTI_11atlas_local6client16list_deployments5tests38___mock_MockDocker_DockerListContainers17___list_containersNtB6_11Expectation11return_oncepEBg_
FNDA:0,_RINvMs6_NtNtNtNtNtCscJhqz4rleTI_11atlas_local6client16list_deployments5tests38___mock_MockDocker_DockerListContainers17___list_containersNtB6_11Expectation12return_constpEBg_
FNDA:0,_RINvMs6_NtNtNtNtNtCscJhqz4rleTI_11atlas_local6client16list_deployments5tests38___mock_MockDocker_DockerListContainers17___list_containersNtB6_11Expectation12returning_stpEBg_
FNDA:0,_RINvMs6_NtNtNtNtNtCscJhqz4rleTI_11atlas_local6client16list_deployments5tests38___mock_MockDocker_DockerListContainers17___list_containersNtB6_11Expectation14return_once_stpEBg_
FNDA:0,_RINvMs6_NtNtNtNtNtCscJhqz4rleTI_11atlas_local6client16list_deployments5tests38___mock_MockDocker_DockerListContainers17___list_containersNtB6_11Expectation15return_const_stpEBg_
FNDA:0,_RINvMs6_NtNtNtNtNtCscJhqz4rleTI_11atlas_local6client16list_deployments5tests38___mock_MockDocker_DockerListContainers17___list_containersNtB6_11Expectation4withpEBg_
FNDA:0,_RINvMs6_NtNtNtNtNtCscJhqz4rleTI_11atlas_local6client16list_deployments5tests38___mock_MockDocker_DockerListContainers17___list_containersNtB6_11Expectation5withfpEBg_
FNDA:0,_RINvMs6_NtNtNtNtNtCscJhqz4rleTI_11atlas_local6client16list_deployments5tests38___mock_MockDocker_DockerListContainers17___list_containersNtB6_11Expectation8withf_stpEBg_
FNDA:0,_RINvMs6_NtNtNtNtNtCscJhqz4rleTI_11atlas_local6client16list_deployments5tests40___mock_MockDocker_DockerInspectContainer19___inspect_containerNtB6_11Expectation11return_oncepEBg_
FNDA:0,_RINvMs6_NtNtNtNtNtCscJhqz4rleTI_11atlas_local6client16list_deployments5tests40___mock_MockDocker_DockerInspectContainer19___inspect_containerNtB6_11Expectation12return_constpEBg_
FNDA:0,_RINvMs6_NtNtNtNtNtCscJhqz4rleTI_11atlas_local6client16list_deployments5tests40___mock_MockDocker_DockerInspectContainer19___inspect_containerNtB6_11Expectation12returning_stpEBg_
FNDA:0,_RINvMs6_NtNtNtNtNtCscJhqz4rleTI_11atlas_local6client16list_deployments5tests40___mock_MockDocker_DockerInspectContainer19___inspect_containerNtB6_11Expectation14return_once_stpEBg_
FNDA:0,_RINvMs6_NtNtNtNtNtCscJhqz4rleTI_11atlas_local6client16list_deployments5tests40___mock_MockDocker_DockerInspectContainer19___inspect_containerNtB6_11Expectation15return_const_stpEBg_
FNDA:0,_RINvMs6_NtNtNtNtNtCscJhqz4rleTI_11atlas_local6client16list_deployments5tests40___mock_MockDocker_DockerInspectContainer19___inspect_containerNtB6_11Expectation5withfpEBg_
FNDA:0,_RINvMs6_NtNtNtNtNtCscJhqz4rleTI_11atlas_local6client16list_deployments5tests40___mock_MockDocker_DockerInspectContainer19___inspect_containerNtB6_11Expectation8withf_stpEBg_
FNDA:0,_RNCINvMs6_NtNtNtNtNtCscJhqz4rleTI_11atlas_local6client16list_deployments5tests38___mock_MockDocker_DockerListContainers17___list_containersNtB8_11Expectation12return_constpE0Bi_
FNDA:0,_RNCINvMs6_NtNtNtNtNtCscJhqz4rleTI_11atlas_local6client16list_deployments5tests38___mock_MockDocker_DockerListContainers17___list_containersNtB8_11Expectation15return_const_stpE0Bi_
FNDA:0,_RNCINvMs6_NtNtNtNtNtCscJhqz4rleTI_11atlas_local6client16list_deployments5tests40___mock_MockDocker_DockerInspectContainer19___inspect_containerNtB8_11Expectation12return_constpE0Bi_
FNDA:0,_RNCINvMs6_NtNtNtNtNtCscJhqz4rleTI_11atlas_local6client16list_deployments5tests40___mock_MockDocker_DockerInspectContainer19___inspect_containerNtB8_11Expectation15return_const_stpE0Bi_
FNDA:0,_RNvMs0_NtNtNtCscJhqz4rleTI_11atlas_local6client16list_deployments5testsNtB5_31MockDocker_DockerListContainers10checkpoint
FNDA:0,_RNvMs2_NtNtNtCscJhqz4rleTI_11atlas_local6client16list_deployments5testsNtB5_33MockDocker_DockerInspectContainer10checkpoint
FNDA:0,_RNvMs3_NtNtNtCscJhqz4rleTI_11atlas_local6client16list_deployments5testsNtB5_10MockDocker10checkpoint
FNDA:0,_RNvMs4_NtNtNtNtNtCscJhqz4rleTI_11atlas_local6client16list_deployments5tests38___mock_MockDocker_DockerListContainers17___list_containersNtB5_6Common11in_sequence
FNDA:0,_RNvMs4_NtNtNtNtNtCscJhqz4rleTI_11atlas_local6client16list_deployments5tests38___mock_MockDocker_DockerListContainers17___list_containersNtB5_6Common5never
FNDA:0,_RNvMs4_NtNtNtNtNtCscJhqz4rleTI_11atlas_local6client16list_deployments5tests40___mock_MockDocker_DockerInspectContainer19___inspect_containerNtB5_6Common11in_sequence
FNDA:0,_RNvMs4_NtNtNtNtNtCscJhqz4rleTI_11atlas_local6client16list_deployments5tests40___mock_MockDocker_DockerInspectContainer19___inspect_containerNtB5_6Common5never
FNDA:0,_RNvMs6_NtNtNtNtNtCscJhqz4rleTI_11atlas_local6client16list_deployments5tests38___mock_MockDocker_DockerListContainers17___list_containersNtB5_11Expectation11in_sequence
FNDA:0,_RNvMs6_NtNtNtNtNtCscJhqz4rleTI_11atlas_local6client16list_deployments5tests38___mock_MockDocker_DockerListContainers17___list_containersNtB5_11Expectation3new
FNDA:0,_RNvMs6_NtNtNtNtNtCscJhqz4rleTI_11atlas_local6client16list_deployments5tests38___mock_MockDocker_DockerListContainers17___list_containersNtB5_11Expectation4once
FNDA:0,_RNvMs6_NtNtNtNtNtCscJhqz4rleTI_11atlas_local6client16list_deployments5tests38___mock_MockDocker_DockerListContainers17___list_containersNtB5_11Expectation5never
FNDA:0,_RNvMs6_NtNtNtNtNtCscJhqz4rleTI_11atlas_local6client16list_deployments5tests40___mock_MockDocker_DockerInspectContainer19___inspect_containerNtB5_11Expectation11in_sequence
FNDA:0,_RNvMs6_NtNtNtNtNtCscJhqz4rleTI_11atlas_local6client16list_deployments5tests40___mock_MockDocker_DockerInspectContainer19___inspect_containerNtB5_11Expectation3new
FNDA:0,_RNvMs6_NtNtNtNtNtCscJhqz4rleTI_11atlas_local6client16list_deployments5tests40___mock_MockDocker_DockerInspectContainer19___inspect_containerNtB5_11Expectation4once
FNDA:0,_RNvMs6_NtNtNtNtNtCscJhqz4rleTI_11atlas_local6client16list_deployments5tests40___mock_MockDocker_DockerInspectContainer19___inspect_containerNtB5_11Expectation5never
FNDA:0,_RNvMs8_NtNtNtNtNtCscJhqz4rleTI_11atlas_local6client16list_deployments5tests38___mock_MockDocker_DockerListContainers17___list_containersNtB5_12Expectations10checkpoint
FNDA:0,_RNvMs8_NtNtNtNtNtCscJhqz4rleTI_11atlas_local6client16list_deployments5tests40___mock_MockDocker_DockerInspectContainer19___inspect_containerNtB5_12Expectations10checkpoint
FNDA:5,_RNvMNtNtNtNtNtCscJhqz4rleTI_11atlas_local6client16list_deployments5tests38___mock_MockDocker_DockerListContainers17___list_containersNtB2_5Rfunc8call_mut
FNDA:5,_RNvMs0_NtNtNtNtNtCscJhqz4rleTI_11atlas_local6client16list_deployments5tests38___mock_MockDocker_DockerListContainers17___list_containersNtB5_7Matcher7matches
FNDA:5,_RNvMs4_NtNtNtNtNtCscJhqz4rleTI_11atlas_local6client16list_deployments5tests38___mock_MockDocker_DockerListContainers17___list_containersNtB5_6Common15verify_sequence
FNDA:5,_RNvMs4_NtNtNtNtNtCscJhqz4rleTI_11atlas_local6client16list_deployments5tests38___mock_MockDocker_DockerListContainers17___list_containersNtB5_6Common16satisfy_sequence
FNDA:5,_RNvMs4_NtNtNtNtNtCscJhqz4rleTI_11atlas_local6client16list_deployments5tests38___mock_MockDocker_DockerListContainers17___list_containersNtB5_6Common4call
FNDA:5,_RNvMs4_NtNtNtNtNtCscJhqz4rleTI_11atlas_local6client16list_deployments5tests38___mock_MockDocker_DockerListContainers17___list_containersNtB5_6Common7is_done
FNDA:5,_RNvMs4_NtNtNtNtNtCscJhqz4rleTI_11atlas_local6client16list_deployments5tests38___mock_MockDocker_DockerListContainers17___list_containersNtB5_6Common7matches
FNDA:5,_RNvMs6_NtNtNtNtNtCscJhqz4rleTI_11atlas_local6client16list_deployments5tests38___mock_MockDocker_DockerListContainers17___list_containersNtB5_11Expectation4call
FNDA:5,_RNvMs6_NtNtNtNtNtCscJhqz4rleTI_11atlas_local6client16list_deployments5tests38___mock_MockDocker_DockerListContainers17___list_containersNtB5_11Expectation7is_done
FNDA:5,_RNvMs6_NtNtNtNtNtCscJhqz4rleTI_11atlas_local6client16list_deployments5tests38___mock_MockDocker_DockerListContainers17___list_containersNtB5_11Expectation7matches
FNDA:5,_RNvMs8_NtNtNtNtNtCscJhqz4rleTI_11atlas_local6client16list_deployments5tests38___mock_MockDocker_DockerListContainers17___list_containersNtB5_12Expectations3new
FNDA:5,_RNvMs8_NtNtNtNtNtCscJhqz4rleTI_11atlas_local6client16list_deployments5tests38___mock_MockDocker_DockerListContainers17___list_containersNtB5_12Expectations6expect
FNDA:5,_RNvMsa_NtNtNtNtNtCscJhqz4rleTI_11atlas_local6client16list_deployments5tests38___mock_MockDocker_DockerListContainers17___list_containersNtB5_12Expectations4call
FNDA:5,_RNvXs1_NtNtNtNtNtCscJhqz4rleTI_11atlas_local6client16list_deployments5tests38___mock_MockDocker_DockerListContainers17___list_containersNtB5_7MatcherNtNtCsaNl6UpbT7bw_4core7default7Default7default
FNDA:5,_RNvXs2_NtNtNtNtNtCscJhqz4rleTI_11atlas_local6client16list_deployments5tests38___mock_MockDocker_DockerListContainers17___list_containersNtB5_7MatcherNtNtCsaNl6UpbT7bw_4core3fmt7Display3fmt
FNDA:5,_RNvXs3_NtNtNtNtNtCscJhqz4rleTI_11atlas_local6client16list_deployments5tests38___mock_MockDocker_DockerListContainers17___list_containersNtB5_6CommonNtNtCsaNl6UpbT7bw_4core7default7Default7default
FNDA:5,_RNvXs7_NtNtNtNtNtCscJhqz4rleTI_11atlas_local6client16list_deployments5tests38___mock_MockDocker_DockerListContainers17___list_containersNtB5_11ExpectationNtNtCsaNl6UpbT7bw_4core7default7Default7default
FNDA:5,_RNvXs9_NtNtNtNtNtCscJhqz4rleTI_11atlas_local6client16list_deployments5tests38___mock_MockDocker_DockerListContainers17___list_containersNtB5_12ExpectationsNtNtCsaNl6UpbT7bw_4core7default7Default7default
FNDA:5,_RNvXs_NtNtNtNtNtCscJhqz4rleTI_11atlas_local6client16list_deployments5tests38___mock_MockDocker_DockerListContainers17___list_containersNtB4_5RfuncNtNtCsaNl6UpbT7bw_4core7default7Default7default
FNDA:5,_RNvMs3_NtNtNtCscJhqz4rleTI_11atlas_local6client16list_deployments5testsNtB5_10MockDocker3new
FNDA:5,_RNvMs5_NtNtNtCscJhqz4rleTI_11atlas_local6client16list_deployments5testsNtB5_10MockDocker22expect_list_containers
FNDA:4,_RNvMs7_NtNtNtCscJhqz4rleTI_11atlas_local6client16list_deployments5testsNtB5_10MockDocker24expect_inspect_container
FNDA:4,_RNvNtNtNtCscJhqz4rleTI_11atlas_local6client16list_deployments5tests24create_container_summary
FNDA:3,_RNvNtNtNtCscJhqz4rleTI_11atlas_local6client16list_deployments5tests33create_container_inspect_response
FNDA:1,_RNvNtNtNtCscJhqz4rleTI_11atlas_local6client16list_deployments5testss_21test_list_deployments
FNDA:1,_RNvNtNtNtCscJhqz4rleTI_11atlas_local6client16list_deployments5testss_27test_list_deployments_empty
FNDA:1,_RNvNtNtNtCscJhqz4rleTI_11atlas_local6client16list_deployments5testss_43test_list_deployments_list_containers_error
FNDA:1,_RNvNtNtNtCscJhqz4rleTI_11atlas_local6client16list_deployments5testss_45test_list_deployments_inspect_container_error
FNDA:1,_RNvNtNtNtCscJhqz4rleTI_11atlas_local6client16list_deployments5testss_48test_list_deployments_skip_containers_without_id
FNDA:5,_RNvXNtNtNtCscJhqz4rleTI_11atlas_local6client16list_deployments5testsNtB2_10MockDockerNtNtCsaNl6UpbT7bw_4core7default7Default7default
FNDA:5,_RNvXs1_NtNtNtCscJhqz4rleTI_11atlas_local6client16list_deployments5testsNtB5_33MockDocker_DockerInspectContainerNtNtCsaNl6UpbT7bw_4core7default7Default7default
FNDA:5,_RNvXs_NtNtNtCscJhqz4rleTI_11atlas_local6client16list_deployments5testsNtB4_31MockDocker_DockerListContainersNtNtCsaNl6UpbT7bw_4core7default7Default7default
FNDA:1,_RNCNCNvNtNtNtCscJhqz4rleTI_11atlas_local6client16list_deployments5testss_21test_list_deployments00Bb_
FNDA:1,_RNCNCNvNtNtNtCscJhqz4rleTI_11atlas_local6client16list_deployments5testss_21test_list_deployments0s0_0Bb_
FNDA:1,_RNCNCNvNtNtNtCscJhqz4rleTI_11atlas_local6client16list_deployments5testss_21test_list_deployments0s_0Bb_
FNDA:1,_RNCNCNvNtNtNtCscJhqz4rleTI_11atlas_local6client16list_deployments5testss_27test_list_deployments_empty00Bb_
FNDA:1,_RNCNCNvNtNtNtCscJhqz4rleTI_11atlas_local6client16list_deployments5testss_43test_list_deployments_list_containers_error00Bb_
FNDA:1,_RNCNCNvNtNtNtCscJhqz4rleTI_11atlas_local6client16list_deployments5testss_45test_list_deployments_inspect_container_error00Bb_
FNDA:1,_RNCNCNvNtNtNtCscJhqz4rleTI_11atlas_local6client16list_deployments5testss_45test_list_deployments_inspect_container_error0s_0Bb_
FNDA:1,_RNCNCNvNtNtNtCscJhqz4rleTI_11atlas_local6client16list_deployments5testss_48test_list_deployments_skip_containers_without_id00Bb_
FNDA:1,_RNCNCNvNtNtNtCscJhqz4rleTI_11atlas_local6client16list_deployments5testss_48test_list_deployments_skip_containers_without_id0s_0Bb_
FNDA:1,_RNCNvNtNtNtCscJhqz4rleTI_11atlas_local6client16list_deployments5testss_21test_list_deployments0B9_
FNDA:1,_RNCNvNtNtNtCscJhqz4rleTI_11atlas_local6client16list_deployments5testss_27test_list_deployments_empty0B9_
FNDA:1,_RNCNvNtNtNtCscJhqz4rleTI_11atlas_local6client16list_deployments5testss_43test_list_deployments_list_containers_error0B9_
FNDA:1,_RNCNvNtNtNtCscJhqz4rleTI_11atlas_local6client16list_deployments5testss_45test_list_deployments_inspect_container_error0B9_
FNDA:1,_RNCNvNtNtNtCscJhqz4rleTI_11atlas_local6client16list_deployments5testss_48test_list_deployments_skip_containers_without_id0B9_
FNDA:5,_RNCNvXs4_NtNtNtCscJhqz4rleTI_11atlas_local6client16list_deployments5testsNtB7_10MockDockerNtNtBd_6docker20DockerListContainers15list_containers0Bd_
FNDA:4,_RNCNvXs6_NtNtNtCscJhqz4rleTI_11atlas_local6client16list_deployments5testsNtB7_10MockDockerNtNtBd_6docker22DockerInspectContainer17inspect_container0Bd_
FNF:26
FNH:26
DA:14,5
DA:16,5
DA:17,5
DA:18,5
DA:19,5
DA:20,5
DA:21,5
DA:24,5
DA:25,5
DA:26,5
DA:27,5
DA:30,4
DA:33,8
DA:36,5
DA:38,4
DA:39,3
DA:40,1
DA:43,3
DA:44,5
DA:67,5
DA:68,5
DA:74,4
DA:75,4
DA:76,4
DA:79,277
DA:81,4
DA:82,4
DA:83,4
DA:84,4
DA:85,4
DA:86,4
DA:87,4
DA:89,3
DA:90,3
DA:91,3
DA:92,3
DA:93,3
DA:95,3
DA:97,3
DA:98,3
DA:99,3
DA:100,3
DA:101,3
DA:102,3
DA:103,3
DA:104,3
DA:105,3
DA:106,3
DA:107,3
DA:108,3
DA:109,3
DA:110,3
DA:111,3
DA:114,1
DA:116,1
DA:118,1
DA:119,1
DA:120,1
DA:123,1
DA:124,1
DA:125,1
DA:126,1
DA:129,1
DA:130,1
DA:131,1
DA:132,1
DA:134,1
DA:135,1
DA:136,1
DA:137,1
DA:138,1
DA:139,1
DA:140,1
DA:141,1
DA:143,1
DA:144,1
DA:145,1
DA:146,1
DA:147,1
DA:148,1
DA:149,1
DA:150,1
DA:152,1
DA:155,1
DA:158,1
DA:159,1
DA:160,1
DA:162,1
DA:163,1
DA:164,1
DA:165,1
DA:167,1
DA:168,1
DA:169,1
DA:170,1
DA:171,1
DA:174,1
DA:176,1
DA:179,1
DA:180,1
DA:181,1
DA:182,1
DA:184,1
DA:187,1
DA:190,1
DA:191,1
DA:192,1
DA:193,1
DA:196,1
DA:198,1
DA:201,1
DA:202,1
DA:203,1
DA:204,1
DA:205,1
DA:206,1
DA:207,1
DA:208,1
DA:209,1
DA:211,1
DA:214,1
DA:217,1
DA:218,1
DA:219,1
DA:220,1
DA:221,1
DA:222,1
DA:225,1
DA:227,1
DA:229,1
DA:232,1
DA:233,1
DA:234,1
DA:235,1
DA:237,1
DA:238,1
DA:239,1
DA:240,1
DA:241,1
DA:242,1
DA:243,1
DA:244,1
DA:245,1
DA:246,1
DA:247,1
DA:248,1
DA:249,1
DA:251,1
DA:254,1
DA:257,1
DA:258,1
DA:259,1
DA:260,1
DA:261,1
DA:262,1
DA:265,1
DA:267,1
DA:269,1
DA:270,1
DA:271,1
DA:272,1
DA:273,1
DA:274,1
DA:277,1
DA:278,1
DA:281,1
DA:282,1
DA:283,1
DA:284,1
DA:286,1
DA:287,1
DA:288,1
DA:289,1
DA:290,1
DA:291,1
DA:292,1
DA:293,1
DA:295,1
DA:298,1
DA:301,1
DA:302,1
DA:303,1
DA:304,1
DA:305,1
DA:306,1
BRF:0
BRH:0
LF:207
LH:207
end_of_record
SF:/Users/jeroen.vervaeke/git/github.com/mongodb/atlas-local-lib/src/client/mod.rs
FN:47,_RNvMNtCscJhqz4rleTI_11atlas_local6clientINtB2_6ClientNtNtNtB2_10pull_image5tests10MockDockerE3newB4_
FN:47,_RNvMNtCscJhqz4rleTI_11atlas_local6clientINtB2_6ClientNtNtNtB2_14get_deployment5tests10MockDockerE3newB4_
FN:47,_RNvMNtCscJhqz4rleTI_11atlas_local6clientINtB2_6ClientNtNtNtB2_16list_deployments5tests10MockDockerE3newB4_
FN:47,_RNvMNtCscJhqz4rleTI_11atlas_local6clientINtB2_6ClientNtNtNtB2_17create_deployment5tests10MockDockerE3newB4_
FN:47,_RNvMNtCscJhqz4rleTI_11atlas_local6clientINtB2_6ClientNtNtNtB2_17delete_deployment5tests10MockDockerE3newB4_
FN:47,_RNvMNtCscJhqz4rleTI_11atlas_local6clientINtB2_6ClientNtNtNtB2_17get_deployment_id5tests10MockDockerE3newB4_
FN:47,_RNvMNtCscJhqz4rleTI_11atlas_local6clientINtB2_6ClientNtNtNtB2_21get_connection_string5tests10MockDockerE3newB4_
FNDA:2,_RNvMNtCscJhqz4rleTI_11atlas_local6clientINtB2_6ClientNtNtNtB2_10pull_image5tests10MockDockerE3newB4_
FNDA:3,_RNvMNtCscJhqz4rleTI_11atlas_local6clientINtB2_6ClientNtNtNtB2_14get_deployment5tests10MockDockerE3newB4_
FNDA:5,_RNvMNtCscJhqz4rleTI_11atlas_local6clientINtB2_6ClientNtNtNtB2_16list_deployments5tests10MockDockerE3newB4_
FNDA:12,_RNvMNtCscJhqz4rleTI_11atlas_local6clientINtB2_6ClientNtNtNtB2_17create_deployment5tests10MockDockerE3newB4_
FNDA:4,_RNvMNtCscJhqz4rleTI_11atlas_local6clientINtB2_6ClientNtNtNtB2_17delete_deployment5tests10MockDockerE3newB4_
FNDA:12,_RNvMNtCscJhqz4rleTI_11atlas_local6clientINtB2_6ClientNtNtNtB2_17get_deployment_id5tests10MockDockerE3newB4_
FNDA:5,_RNvMNtCscJhqz4rleTI_11atlas_local6clientINtB2_6ClientNtNtNtB2_21get_connection_string5tests10MockDockerE3newB4_
FNF:1
FNH:1
DA:47,43
DA:48,43
DA:49,43
BRF:0
BRH:0
LF:3
LH:3
end_of_record
SF:/Users/jeroen.vervaeke/git/github.com/mongodb/atlas-local-lib/src/client/pull_image.rs
FN:32,_RINvMs4_NtNtNtNtNtCscJhqz4rleTI_11atlas_local6client10pull_image5tests33___mock_MockDocker_DockerPullImage12___pull_imageNtB6_6Common4withINtNtCsaS4gknD0Sqc_10predicates3ord11EqPredicateReEB2c_EBg_
FN:32,_RINvMs4_NtNtNtNtNtCscJhqz4rleTI_11atlas_local6client10pull_image5tests33___mock_MockDocker_DockerPullImage12___pull_imageNtB6_6Common5timesjEBg_
FN:32,_RINvMs6_NtNtNtNtNtCscJhqz4rleTI_11atlas_local6client10pull_image5tests33___mock_MockDocker_DockerPullImage12___pull_imageNtB6_11Expectation4withINtNtCsaS4gknD0Sqc_10predicates3ord11EqPredicateReEB2i_EBg_
FN:32,_RINvMs6_NtNtNtNtNtCscJhqz4rleTI_11atlas_local6client10pull_image5tests33___mock_MockDocker_DockerPullImage12___pull_imageNtB6_11Expectation5timesjEBg_
FN:32,_RINvMs6_NtNtNtNtNtCscJhqz4rleTI_11atlas_local6client10pull_image5tests33___mock_MockDocker_DockerPullImage12___pull_imageNtB6_11Expectation9returningNCNCNvBa_s_15test_pull_image00EBg_
FN:32,_RINvMs6_NtNtNtNtNtCscJhqz4rleTI_11atlas_local6client10pull_image5tests33___mock_MockDocker_DockerPullImage12___pull_imageNtB6_11Expectation9returningNCNCNvBa_s_28test_pull_image_docker_error00EBg_
FN:32,_RNCNvMs0_NtNtNtNtNtCscJhqz4rleTI_11atlas_local6client10pull_image5tests33___mock_MockDocker_DockerPullImage12___pull_imageNtB7_7Matcher7matches0Bh_
FN:32,_RNCNvMsa_NtNtNtNtNtCscJhqz4rleTI_11atlas_local6client10pull_image5tests33___mock_MockDocker_DockerPullImage12___pull_imageNtB7_12Expectations4call0Bh_
FN:32,_RNCNvMsa_NtNtNtNtNtCscJhqz4rleTI_11atlas_local6client10pull_image5tests33___mock_MockDocker_DockerPullImage12___pull_imageNtB7_12Expectations4calls_0Bh_
FN:32,_RNvMNtNtNtNtNtCscJhqz4rleTI_11atlas_local6client10pull_image5tests33___mock_MockDocker_DockerPullImage12___pull_imageNtB2_5Rfunc8call_mut
FN:32,_RNvMs0_NtNtNtNtNtCscJhqz4rleTI_11atlas_local6client10pull_image5tests33___mock_MockDocker_DockerPullImage12___pull_imageNtB5_7Matcher7matches
FN:32,_RNvMs4_NtNtNtNtNtCscJhqz4rleTI_11atlas_local6client10pull_image5tests33___mock_MockDocker_DockerPullImage12___pull_imageNtB5_6Common15verify_sequence
FN:32,_RNvMs4_NtNtNtNtNtCscJhqz4rleTI_11atlas_local6client10pull_image5tests33___mock_MockDocker_DockerPullImage12___pull_imageNtB5_6Common16satisfy_sequence
FN:32,_RNvMs4_NtNtNtNtNtCscJhqz4rleTI_11atlas_local6client10pull_image5tests33___mock_MockDocker_DockerPullImage12___pull_imageNtB5_6Common4call
FN:32,_RNvMs4_NtNtNtNtNtCscJhqz4rleTI_11atlas_local6client10pull_image5tests33___mock_MockDocker_DockerPullImage12___pull_imageNtB5_6Common7is_done
FN:32,_RNvMs4_NtNtNtNtNtCscJhqz4rleTI_11atlas_local6client10pull_image5tests33___mock_MockDocker_DockerPullImage12___pull_imageNtB5_6Common7matches
FN:32,_RNvMs6_NtNtNtNtNtCscJhqz4rleTI_11atlas_local6client10pull_image5tests33___mock_MockDocker_DockerPullImage12___pull_imageNtB5_11Expectation4call
FN:32,_RNvMs6_NtNtNtNtNtCscJhqz4rleTI_11atlas_local6client10pull_image5tests33___mock_MockDocker_DockerPullImage12___pull_imageNtB5_11Expectation7is_done
FN:32,_RNvMs6_NtNtNtNtNtCscJhqz4rleTI_11atlas_local6client10pull_image5tests33___mock_MockDocker_DockerPullImage12___pull_imageNtB5_11Expectation7matches
FN:32,_RNvMs8_NtNtNtNtNtCscJhqz4rleTI_11atlas_local6client10pull_image5tests33___mock_MockDocker_DockerPullImage12___pull_imageNtB5_12Expectations3new
FN:32,_RNvMs8_NtNtNtNtNtCscJhqz4rleTI_11atlas_local6client10pull_image5tests33___mock_MockDocker_DockerPullImage12___pull_imageNtB5_12Expectations6expect
FN:32,_RNvMsa_NtNtNtNtNtCscJhqz4rleTI_11atlas_local6client10pull_image5tests33___mock_MockDocker_DockerPullImage12___pull_imageNtB5_12Expectations4call
FN:32,_RNvXs1_NtNtNtNtNtCscJhqz4rleTI_11atlas_local6client10pull_image5tests33___mock_MockDocker_DockerPullImage12___pull_imageNtB5_7MatcherNtNtCsaNl6UpbT7bw_4core7default7Default7default
FN:32,_RNvXs2_NtNtNtNtNtCscJhqz4rleTI_11atlas_local6client10pull_image5tests33___mock_MockDocker_DockerPullImage12___pull_imageNtB5_7MatcherNtNtCsaNl6UpbT7bw_4core3fmt7Display3fmt
FN:32,_RNvXs3_NtNtNtNtNtCscJhqz4rleTI_11atlas_local6client10pull_image5tests33___mock_MockDocker_DockerPullImage12___pull_imageNtB5_6CommonNtNtCsaNl6UpbT7bw_4core7default7Default7default
FN:32,_RNvXs7_NtNtNtNtNtCscJhqz4rleTI_11atlas_local6client10pull_image5tests33___mock_MockDocker_DockerPullImage12___pull_imageNtB5_11ExpectationNtNtCsaNl6UpbT7bw_4core7default7Default7default
FN:32,_RNvXs9_NtNtNtNtNtCscJhqz4rleTI_11atlas_local6client10pull_image5tests33___mock_MockDocker_DockerPullImage12___pull_imageNtB5_12ExpectationsNtNtCsaNl6UpbT7bw_4core7default7Default7default
FN:32,_RNvXs_NtNtNtNtNtCscJhqz4rleTI_11atlas_local6client10pull_image5tests33___mock_MockDocker_DockerPullImage12___pull_imageNtB4_5RfuncNtNtCsaNl6UpbT7bw_4core7default7Default7default
FN:47,_RNCNCNvNtNtNtCscJhqz4rleTI_11atlas_local6client10pull_image5testss_15test_pull_image00Bb_
FN:73,_RNCNCNvNtNtNtCscJhqz4rleTI_11atlas_local6client10pull_image5testss_28test_pull_image_docker_error00Bb_
FN:35,_RNCNvNtNtNtCscJhqz4rleTI_11atlas_local6client10pull_image5testss_15test_pull_image0B9_
FN:61,_RNCNvNtNtNtCscJhqz4rleTI_11atlas_local6client10pull_image5testss_28test_pull_image_docker_error0B9_
FN:30,_RNCNvXs2_NtNtNtCscJhqz4rleTI_11atlas_local6client10pull_image5testsNtB7_10MockDockerNtNtBd_6docker15DockerPullImage10pull_image0Bd_
FN:14,_RNvMNtNtCscJhqz4rleTI_11atlas_local6client10pull_imageINtB4_6ClientNtNtB2_5tests10MockDockerE10pull_imageB6_
FN:14,_RNvMNtNtCscJhqz4rleTI_11atlas_local6client10pull_imageINtB4_6ClientNtNtNtB4_17create_deployment5tests10MockDockerE10pull_imageB6_
FN:32,_RNvXs5_NtNtNtNtNtCscJhqz4rleTI_11atlas_local6client10pull_image5tests33___mock_MockDocker_DockerPullImage12___pull_imageNtB5_6CommonNtNtNtCsaNl6UpbT7bw_4core3ops4drop4Drop4drop
FN:32,_RINvMs4_NtNtNtNtNtCscJhqz4rleTI_11atlas_local6client10pull_image5tests33___mock_MockDocker_DockerPullImage12___pull_imageNtB6_6Common5withfpEBg_
FN:32,_RINvMs4_NtNtNtNtNtCscJhqz4rleTI_11atlas_local6client10pull_image5tests33___mock_MockDocker_DockerPullImage12___pull_imageNtB6_6Common8withf_stpEBg_
FN:32,_RINvMs6_NtNtNtNtNtCscJhqz4rleTI_11atlas_local6client10pull_image5tests33___mock_MockDocker_DockerPullImage12___pull_imageNtB6_11Expectation11return_oncepEBg_
FN:32,_RINvMs6_NtNtNtNtNtCscJhqz4rleTI_11atlas_local6client10pull_image5tests33___mock_MockDocker_DockerPullImage12___pull_imageNtB6_11Expectation12return_constpEBg_
FN:32,_RINvMs6_NtNtNtNtNtCscJhqz4rleTI_11atlas_local6client10pull_image5tests33___mock_MockDocker_DockerPullImage12___pull_imageNtB6_11Expectation12returning_stpEBg_
FN:32,_RINvMs6_NtNtNtNtNtCscJhqz4rleTI_11atlas_local6client10pull_image5tests33___mock_MockDocker_DockerPullImage12___pull_imageNtB6_11Expectation14return_once_stpEBg_
FN:32,_RINvMs6_NtNtNtNtNtCscJhqz4rleTI_11atlas_local6client10pull_image5tests33___mock_MockDocker_DockerPullImage12___pull_imageNtB6_11Expectation15return_const_stpEBg_
FN:32,_RINvMs6_NtNtNtNtNtCscJhqz4rleTI_11atlas_local6client10pull_image5tests33___mock_MockDocker_DockerPullImage12___pull_imageNtB6_11Expectation5withfpEBg_
FN:32,_RINvMs6_NtNtNtNtNtCscJhqz4rleTI_11atlas_local6client10pull_image5tests33___mock_MockDocker_DockerPullImage12___pull_imageNtB6_11Expectation8withf_stpEBg_
FN:32,_RNCINvMs6_NtNtNtNtNtCscJhqz4rleTI_11atlas_local6client10pull_image5tests33___mock_MockDocker_DockerPullImage12___pull_imageNtB8_11Expectation12return_constpE0Bi_
FN:32,_RNCINvMs6_NtNtNtNtNtCscJhqz4rleTI_11atlas_local6client10pull_image5tests33___mock_MockDocker_DockerPullImage12___pull_imageNtB8_11Expectation15return_const_stpE0Bi_
FN:32,_RNvMs0_NtNtNtCscJhqz4rleTI_11atlas_local6client10pull_image5testsNtB5_26MockDocker_DockerPullImage10checkpoint
FN:32,_RNvMs1_NtNtNtCscJhqz4rleTI_11atlas_local6client10pull_image5testsNtB5_10MockDocker10checkpoint
FN:32,_RNvMs4_NtNtNtNtNtCscJhqz4rleTI_11atlas_local6client10pull_image5tests33___mock_MockDocker_DockerPullImage12___pull_imageNtB5_6Common11in_sequence
FN:32,_RNvMs4_NtNtNtNtNtCscJhqz4rleTI_11atlas_local6client10pull_image5tests33___mock_MockDocker_DockerPullImage12___pull_imageNtB5_6Common5never
FN:32,_RNvMs6_NtNtNtNtNtCscJhqz4rleTI_11atlas_local6client10pull_image5tests33___mock_MockDocker_DockerPullImage12___pull_imageNtB5_11Expectation11in_sequence
FN:32,_RNvMs6_NtNtNtNtNtCscJhqz4rleTI_11atlas_local6client10pull_image5tests33___mock_MockDocker_DockerPullImage12___pull_imageNtB5_11Expectation3new
FN:32,_RNvMs6_NtNtNtNtNtCscJhqz4rleTI_11atlas_local6client10pull_image5tests33___mock_MockDocker_DockerPullImage12___pull_imageNtB5_11Expectation4once
FN:32,_RNvMs6_NtNtNtNtNtCscJhqz4rleTI_11atlas_local6client10pull_image5tests33___mock_MockDocker_DockerPullImage12___pull_imageNtB5_11Expectation5never
FN:32,_RNvMs8_NtNtNtNtNtCscJhqz4rleTI_11atlas_local6client10pull_image5tests33___mock_MockDocker_DockerPullImage12___pull_imageNtB5_12Expectations10checkpoint
FN:32,_RNvMs1_NtNtNtCscJhqz4rleTI_11atlas_local6client10pull_image5testsNtB5_10MockDocker3new
FN:32,_RNvMs3_NtNtNtCscJhqz4rleTI_11atlas_local6client10pull_image5testsNtB5_10MockDocker17expect_pull_image
FN:35,_RNvNtNtNtCscJhqz4rleTI_11atlas_local6client10pull_image5testss_15test_pull_image
FN:61,_RNvNtNtNtCscJhqz4rleTI_11atlas_local6client10pull_image5testss_28test_pull_image_docker_error
FN:32,_RNvXNtNtNtCscJhqz4rleTI_11atlas_local6client10pull_image5testsNtB2_10MockDockerNtNtCsaNl6UpbT7bw_4core7default7Default7default
FN:32,_RNvXs_NtNtNtCscJhqz4rleTI_11atlas_local6client10pull_image5testsNtB4_26MockDocker_DockerPullImageNtNtCsaNl6UpbT7bw_4core7default7Default7default
FN:14,_RNCNvMNtNtCscJhqz4rleTI_11atlas_local6client10pull_imageINtB6_6ClientNtNtB4_5tests10MockDockerE10pull_image0B8_
FN:14,_RNCNvMNtNtCscJhqz4rleTI_11atlas_local6client10pull_imageINtB6_6ClientNtNtNtB6_17create_deployment5tests10MockDockerE10pull_image0B8_
FNDA:2,_RINvMs4_NtNtNtNtNtCscJhqz4rleTI_11atlas_local6client10pull_image5tests33___mock_MockDocker_DockerPullImage12___pull_imageNtB6_6Common4withINtNtCsaS4gknD0Sqc_10predicates3ord11EqPredicateReEB2c_EBg_
FNDA:2,_RINvMs4_NtNtNtNtNtCscJhqz4rleTI_11atlas_local6client10pull_image5tests33___mock_MockDocker_DockerPullImage12___pull_imageNtB6_6Common5timesjEBg_
FNDA:2,_RINvMs6_NtNtNtNtNtCscJhqz4rleTI_11atlas_local6client10pull_image5tests33___mock_MockDocker_DockerPullImage12___pull_imageNtB6_11Expectation4withINtNtCsaS4gknD0Sqc_10predicates3ord11EqPredicateReEB2i_EBg_
FNDA:2,_RINvMs6_NtNtNtNtNtCscJhqz4rleTI_11atlas_local6client10pull_image5tests33___mock_MockDocker_DockerPullImage12___pull_imageNtB6_11Expectation5timesjEBg_
FNDA:1,_RINvMs6_NtNtNtNtNtCscJhqz4rleTI_11atlas_local6client10pull_image5tests33___mock_MockDocker_DockerPullImage12___pull_imageNtB6_11Expectation9returningNCNCNvBa_s_15test_pull_image00EBg_
FNDA:1,_RINvMs6_NtNtNtNtNtCscJhqz4rleTI_11atlas_local6client10pull_image5tests33___mock_MockDocker_DockerPullImage12___pull_imageNtB6_11Expectation9returningNCNCNvBa_s_28test_pull_image_docker_error00EBg_
FNDA:4,_RNCNvMs0_NtNtNtNtNtCscJhqz4rleTI_11atlas_local6client10pull_image5tests33___mock_MockDocker_DockerPullImage12___pull_imageNtB7_7Matcher7matches0Bh_
FNDA:2,_RNCNvMsa_NtNtNtNtNtCscJhqz4rleTI_11atlas_local6client10pull_image5tests33___mock_MockDocker_DockerPullImage12___pull_imageNtB7_12Expectations4call0Bh_
FNDA:2,_RNCNvMsa_NtNtNtNtNtCscJhqz4rleTI_11atlas_local6client10pull_image5tests33___mock_MockDocker_DockerPullImage12___pull_imageNtB7_12Expectations4calls_0Bh_
FNDA:2,_RNvMNtNtNtNtNtCscJhqz4rleTI_11atlas_local6client10pull_image5tests33___mock_MockDocker_DockerPullImage12___pull_imageNtB2_5Rfunc8call_mut
FNDA:2,_RNvMs0_NtNtNtNtNtCscJhqz4rleTI_11atlas_local6client10pull_image5tests33___mock_MockDocker_DockerPullImage12___pull_imageNtB5_7Matcher7matches
FNDA:2,_RNvMs4_NtNtNtNtNtCscJhqz4rleTI_11atlas_local6client10pull_image5tests33___mock_MockDocker_DockerPullImage12___pull_imageNtB5_6Common15verify_sequence
FNDA:2,_RNvMs4_NtNtNtNtNtCscJhqz4rleTI_11atlas_local6client10pull_image5tests33___mock_MockDocker_DockerPullImage12___pull_imageNtB5_6Common16satisfy_sequence
FNDA:2,_RNvMs4_NtNtNtNtNtCscJhqz4rleTI_11atlas_local6client10pull_image5tests33___mock_MockDocker_DockerPullImage12___pull_imageNtB5_6Common4call
FNDA:2,_RNvMs4_NtNtNtNtNtCscJhqz4rleTI_11atlas_local6client10pull_image5tests33___mock_MockDocker_DockerPullImage12___pull_imageNtB5_6Common7is_done
FNDA:2,_RNvMs4_NtNtNtNtNtCscJhqz4rleTI_11atlas_local6client10pull_image5tests33___mock_MockDocker_DockerPullImage12___pull_imageNtB5_6Common7matches
FNDA:2,_RNvMs6_NtNtNtNtNtCscJhqz4rleTI_11atlas_local6client10pull_image5tests33___mock_MockDocker_DockerPullImage12___pull_imageNtB5_11Expectation4call
FNDA:2,_RNvMs6_NtNtNtNtNtCscJhqz4rleTI_11atlas_local6client10pull_image5tests33___mock_MockDocker_DockerPullImage12___pull_imageNtB5_11Expectation7is_done
FNDA:2,_RNvMs6_NtNtNtNtNtCscJhqz4rleTI_11atlas_local6client10pull_image5tests33___mock_MockDocker_DockerPullImage12___pull_imageNtB5_11Expectation7matches
FNDA:2,_RNvMs8_NtNtNtNtNtCscJhqz4rleTI_11atlas_local6client10pull_image5tests33___mock_MockDocker_DockerPullImage12___pull_imageNtB5_12Expectations3new
FNDA:2,_RNvMs8_NtNtNtNtNtCscJhqz4rleTI_11atlas_local6client10pull_image5tests33___mock_MockDocker_DockerPullImage12___pull_imageNtB5_12Expectations6expect
FNDA:2,_RNvMsa_NtNtNtNtNtCscJhqz4rleTI_11atlas_local6client10pull_image5tests33___mock_MockDocker_DockerPullImage12___pull_imageNtB5_12Expectations4call
FNDA:2,_RNvXs1_NtNtNtNtNtCscJhqz4rleTI_11atlas_local6client10pull_image5tests33___mock_MockDocker_DockerPullImage12___pull_imageNtB5_7MatcherNtNtCsaNl6UpbT7bw_4core7default7Default7default
FNDA:2,_RNvXs2_NtNtNtNtNtCscJhqz4rleTI_11atlas_local6client10pull_image5tests33___mock_MockDocker_DockerPullImage12___pull_imageNtB5_7MatcherNtNtCsaNl6UpbT7bw_4core3fmt7Display3fmt
FNDA:2,_RNvXs3_NtNtNtNtNtCscJhqz4rleTI_11atlas_local6client10pull_image5tests33___mock_MockDocker_DockerPullImage12___pull_imageNtB5_6CommonNtNtCsaNl6UpbT7bw_4core7default7Default7default
FNDA:2,_RNvXs7_NtNtNtNtNtCscJhqz4rleTI_11atlas_local6client10pull_image5tests33___mock_MockDocker_DockerPullImage12___pull_imageNtB5_11ExpectationNtNtCsaNl6UpbT7bw_4core7default7Default7default
FNDA:2,_RNvXs9_NtNtNtNtNtCscJhqz4rleTI_11atlas_local6client10pull_image5tests33___mock_MockDocker_DockerPullImage12___pull_imageNtB5_12ExpectationsNtNtCsaNl6UpbT7bw_4core7default7Default7default
FNDA:2,_RNvXs_NtNtNtNtNtCscJhqz4rleTI_11atlas_local6client10pull_image5tests33___mock_MockDocker_DockerPullImage12___pull_imageNtB4_5RfuncNtNtCsaNl6UpbT7bw_4core7default7Default7default
FNDA:1,_RNCNCNvNtNtNtCscJhqz4rleTI_11atlas_local6client10pull_image5testss_15test_pull_image00Bb_
FNDA:1,_RNCNCNvNtNtNtCscJhqz4rleTI_11atlas_local6client10pull_image5testss_28test_pull_image_docker_error00Bb_
FNDA:1,_RNCNvNtNtNtCscJhqz4rleTI_11atlas_local6client10pull_image5testss_15test_pull_image0B9_
FNDA:1,_RNCNvNtNtNtCscJhqz4rleTI_11atlas_local6client10pull_image5testss_28test_pull_image_docker_error0B9_
FNDA:2,_RNCNvXs2_NtNtNtCscJhqz4rleTI_11atlas_local6client10pull_image5testsNtB7_10MockDockerNtNtBd_6docker15DockerPullImage10pull_image0Bd_
FNDA:2,_RNvMNtNtCscJhqz4rleTI_11atlas_local6client10pull_imageINtB4_6ClientNtNtB2_5tests10MockDockerE10pull_imageB6_
FNDA:12,_RNvMNtNtCscJhqz4rleTI_11atlas_local6client10pull_imageINtB4_6ClientNtNtNtB4_17create_deployment5tests10MockDockerE10pull_imageB6_
FNDA:2,_RNvXs5_NtNtNtNtNtCscJhqz4rleTI_11atlas_local6client10pull_image5tests33___mock_MockDocker_DockerPullImage12___pull_imageNtB5_6CommonNtNtNtCsaNl6UpbT7bw_4core3ops4drop4Drop4drop
FNDA:0,_RINvMs4_NtNtNtNtNtCscJhqz4rleTI_11atlas_local6client10pull_image5tests33___mock_MockDocker_DockerPullImage12___pull_imageNtB6_6Common5withfpEBg_
FNDA:0,_RINvMs4_NtNtNtNtNtCscJhqz4rleTI_11atlas_local6client10pull_image5tests33___mock_MockDocker_DockerPullImage12___pull_imageNtB6_6Common8withf_stpEBg_
FNDA:0,_RINvMs6_NtNtNtNtNtCscJhqz4rleTI_11atlas_local6client10pull_image5tests33___mock_MockDocker_DockerPullImage12___pull_imageNtB6_11Expectation11return_oncepEBg_
FNDA:0,_RINvMs6_NtNtNtNtNtCscJhqz4rleTI_11atlas_local6client10pull_image5tests33___mock_MockDocker_DockerPullImage12___pull_imageNtB6_11Expectation12return_constpEBg_
FNDA:0,_RINvMs6_NtNtNtNtNtCscJhqz4rleTI_11atlas_local6client10pull_image5tests33___mock_MockDocker_DockerPullImage12___pull_imageNtB6_11Expectation12returning_stpEBg_
FNDA:0,_RINvMs6_NtNtNtNtNtCscJhqz4rleTI_11atlas_local6client10pull_image5tests33___mock_MockDocker_DockerPullImage12___pull_imageNtB6_11Expectation14return_once_stpEBg_
FNDA:0,_RINvMs6_NtNtNtNtNtCscJhqz4rleTI_11atlas_local6client10pull_image5tests33___mock_MockDocker_DockerPullImage12___pull_imageNtB6_11Expectation15return_const_stpEBg_
FNDA:0,_RINvMs6_NtNtNtNtNtCscJhqz4rleTI_11atlas_local6client10pull_image5tests33___mock_MockDocker_DockerPullImage12___pull_imageNtB6_11Expectation5withfpEBg_
FNDA:0,_RINvMs6_NtNtNtNtNtCscJhqz4rleTI_11atlas_local6client10pull_image5tests33___mock_MockDocker_DockerPullImage12___pull_imageNtB6_11Expectation8withf_stpEBg_
FNDA:0,_RNCINvMs6_NtNtNtNtNtCscJhqz4rleTI_11atlas_local6client10pull_image5tests33___mock_MockDocker_DockerPullImage12___pull_imageNtB8_11Expectation12return_constpE0Bi_
FNDA:0,_RNCINvMs6_NtNtNtNtNtCscJhqz4rleTI_11atlas_local6client10pull_image5tests33___mock_MockDocker_DockerPullImage12___pull_imageNtB8_11Expectation15return_const_stpE0Bi_
FNDA:0,_RNvMs0_NtNtNtCscJhqz4rleTI_11atlas_local6client10pull_image5testsNtB5_26MockDocker_DockerPullImage10checkpoint
FNDA:0,_RNvMs1_NtNtNtCscJhqz4rleTI_11atlas_local6client10pull_image5testsNtB5_10MockDocker10checkpoint
FNDA:0,_RNvMs4_NtNtNtNtNtCscJhqz4rleTI_11atlas_local6client10pull_image5tests33___mock_MockDocker_DockerPullImage12___pull_imageNtB5_6Common11in_sequence
FNDA:0,_RNvMs4_NtNtNtNtNtCscJhqz4rleTI_11atlas_local6client10pull_image5tests33___mock_MockDocker_DockerPullImage12___pull_imageNtB5_6Common5never
FNDA:0,_RNvMs6_NtNtNtNtNtCscJhqz4rleTI_11atlas_local6client10pull_image5tests33___mock_MockDocker_DockerPullImage12___pull_imageNtB5_11Expectation11in_sequence
FNDA:0,_RNvMs6_NtNtNtNtNtCscJhqz4rleTI_11atlas_local6client10pull_image5tests33___mock_MockDocker_DockerPullImage12___pull_imageNtB5_11Expectation3new
FNDA:0,_RNvMs6_NtNtNtNtNtCscJhqz4rleTI_11atlas_local6client10pull_image5tests33___mock_MockDocker_DockerPullImage12___pull_imageNtB5_11Expectation4once
FNDA:0,_RNvMs6_NtNtNtNtNtCscJhqz4rleTI_11atlas_local6client10pull_image5tests33___mock_MockDocker_DockerPullImage12___pull_imageNtB5_11Expectation5never
FNDA:0,_RNvMs8_NtNtNtNtNtCscJhqz4rleTI_11atlas_local6client10pull_image5tests33___mock_MockDocker_DockerPullImage12___pull_imageNtB5_12Expectations10checkpoint
FNDA:2,_RNvMs1_NtNtNtCscJhqz4rleTI_11atlas_local6client10pull_image5testsNtB5_10MockDocker3new
FNDA:2,_RNvMs3_NtNtNtCscJhqz4rleTI_11atlas_local6client10pull_image5testsNtB5_10MockDocker17expect_pull_image
FNDA:1,_RNvNtNtNtCscJhqz4rleTI_11atlas_local6client10pull_image5testss_15test_pull_image
FNDA:1,_RNvNtNtNtCscJhqz4rleTI_11atlas_local6client10pull_image5testss_28test_pull_image_docker_error
FNDA:2,_RNvXNtNtNtCscJhqz4rleTI_11atlas_local6client10pull_image5testsNtB2_10MockDockerNtNtCsaNl6UpbT7bw_4core7default7Default7default
FNDA:2,_RNvXs_NtNtNtCscJhqz4rleTI_11atlas_local6client10pull_image5testsNtB4_26MockDocker_DockerPullImageNtNtCsaNl6UpbT7bw_4core7default7Default7default
FNDA:2,_RNCNvMNtNtCscJhqz4rleTI_11atlas_local6client10pull_imageINtB6_6ClientNtNtB4_5tests10MockDockerE10pull_image0B8_
FNDA:12,_RNCNvMNtNtCscJhqz4rleTI_11atlas_local6client10pull_imageINtB6_6ClientNtNtNtB6_17create_deployment5tests10MockDockerE10pull_image0B8_
FNF:10
FNH:10
DA:14,14
DA:15,14
DA:16,12
DA:17,14
DA:30,2
DA:32,66
DA:35,1
DA:37,1
DA:40,1
DA:41,1
DA:42,1
DA:43,1
DA:44,1
DA:45,1
DA:46,1
DA:47,1
DA:49,1
DA:52,1
DA:53,1
DA:54,1
DA:57,1
DA:58,1
DA:61,1
DA:63,1
DA:66,1
DA:67,1
DA:68,1
DA:69,1
DA:70,1
DA:71,1
DA:72,1
DA:73,1
DA:74,1
DA:75,1
DA:76,1
DA:77,1
DA:78,1
DA:80,1
DA:83,1
DA:84,1
DA:85,1
DA:88,1
DA:89,1
DA:90,1
BRF:0
BRH:0
LF:51
LH:51
end_of_record
SF:/Users/jeroen.vervaeke/git/github.com/mongodb/atlas-local-lib/src/docker.rs
FN:29,_RNCNvXNtCscJhqz4rleTI_11atlas_local6dockerNtNtCs8S3PMBouT3I_7bollard6docker6DockerNtB4_22DockerInspectContainer17inspect_container0B6_
FN:55,_RNCNvXs0_NtCscJhqz4rleTI_11atlas_local6dockerNtNtCs8S3PMBouT3I_7bollard6docker6DockerNtB7_15DockerPullImage10pull_image0B9_
FN:87,_RNCNvXs1_NtCscJhqz4rleTI_11atlas_local6dockerNtNtCs8S3PMBouT3I_7bollard6docker6DockerNtB7_19DockerStopContainer14stop_container0B9_
FN:105,_RNCNvXs2_NtCscJhqz4rleTI_11atlas_local6dockerNtNtCs8S3PMBouT3I_7bollard6docker6DockerNtB7_21DockerRemoveContainer16remove_container0B9_
FN:123,_RNCNvXs3_NtCscJhqz4rleTI_11atlas_local6dockerNtNtCs8S3PMBouT3I_7bollard6docker6DockerNtB7_21DockerCreateContainer16create_container0B9_
FN:141,_RNCNvXs4_NtCscJhqz4rleTI_11atlas_local6dockerNtNtCs8S3PMBouT3I_7bollard6docker6DockerNtB7_20DockerStartContainer15start_container0B9_
FN:176,_RNCNvXs5_NtCscJhqz4rleTI_11atlas_local6dockerNtNtCs8S3PMBouT3I_7bollard6docker6DockerNtB7_21RunCommandInContainer24run_command_in_container0B9_
FN:45,_RNCNvXs_NtCscJhqz4rleTI_11atlas_local6dockerNtNtCs8S3PMBouT3I_7bollard6docker6DockerNtB6_20DockerListContainers15list_containers0B8_
FN:25,_RNvXNtCscJhqz4rleTI_11atlas_local6dockerNtNtCs8S3PMBouT3I_7bollard6docker6DockerNtB2_22DockerInspectContainer17inspect_container
FN:55,_RNvXs0_NtCscJhqz4rleTI_11atlas_local6dockerNtNtCs8S3PMBouT3I_7bollard6docker6DockerNtB5_15DockerPullImage10pull_image
FN:83,_RNvXs1_NtCscJhqz4rleTI_11atlas_local6dockerNtNtCs8S3PMBouT3I_7bollard6docker6DockerNtB5_19DockerStopContainer14stop_container
FN:101,_RNvXs2_NtCscJhqz4rleTI_11atlas_local6dockerNtNtCs8S3PMBouT3I_7bollard6docker6DockerNtB5_21DockerRemoveContainer16remove_container
FN:119,_RNvXs3_NtCscJhqz4rleTI_11atlas_local6dockerNtNtCs8S3PMBouT3I_7bollard6docker6DockerNtB5_21DockerCreateContainer16create_container
FN:137,_RNvXs4_NtCscJhqz4rleTI_11atlas_local6dockerNtNtCs8S3PMBouT3I_7bollard6docker6DockerNtB5_20DockerStartContainer15start_container
FN:172,_RNvXs5_NtCscJhqz4rleTI_11atlas_local6dockerNtNtCs8S3PMBouT3I_7bollard6docker6DockerNtB5_21RunCommandInContainer24run_command_in_container
FN:42,_RNvXs_NtCscJhqz4rleTI_11atlas_local6dockerNtNtCs8S3PMBouT3I_7bollard6docker6DockerNtB4_20DockerListContainers15list_containers
FNDA:0,_RNCNvXNtCscJhqz4rleTI_11atlas_local6dockerNtNtCs8S3PMBouT3I_7bollard6docker6DockerNtB4_22DockerInspectContainer17inspect_container0B6_
FNDA:0,_RNCNvXs0_NtCscJhqz4rleTI_11atlas_local6dockerNtNtCs8S3PMBouT3I_7bollard6docker6DockerNtB7_15DockerPullImage10pull_image0B9_
FNDA:0,_RNCNvXs1_NtCscJhqz4rleTI_11atlas_local6dockerNtNtCs8S3PMBouT3I_7bollard6docker6DockerNtB7_19DockerStopContainer14stop_container0B9_
FNDA:0,_RNCNvXs2_NtCscJhqz4rleTI_11atlas_local6dockerNtNtCs8S3PMBouT3I_7bollard6docker6DockerNtB7_21DockerRemoveContainer16remove_container0B9_
FNDA:0,_RNCNvXs3_NtCscJhqz4rleTI_11atlas_local6dockerNtNtCs8S3PMBouT3I_7bollard6docker6DockerNtB7_21DockerCreateContainer16create_container0B9_
FNDA:0,_RNCNvXs4_NtCscJhqz4rleTI_11atlas_local6dockerNtNtCs8S3PMBouT3I_7bollard6docker6DockerNtB7_20DockerStartContainer15start_container0B9_
FNDA:0,_RNCNvXs5_NtCscJhqz4rleTI_11atlas_local6dockerNtNtCs8S3PMBouT3I_7bollard6docker6DockerNtB7_21RunCommandInContainer24run_command_in_container0B9_
FNDA:0,_RNCNvXs_NtCscJhqz4rleTI_11atlas_local6dockerNtNtCs8S3PMBouT3I_7bollard6docker6DockerNtB6_20DockerListContainers15list_containers0B8_
FNDA:0,_RNvXNtCscJhqz4rleTI_11atlas_local6dockerNtNtCs8S3PMBouT3I_7bollard6docker6DockerNtB2_22DockerInspectContainer17inspect_container
FNDA:0,_RNvXs0_NtCscJhqz4rleTI_11atlas_local6dockerNtNtCs8S3PMBouT3I_7bollard6docker6DockerNtB5_15DockerPullImage10pull_image
FNDA:0,_RNvXs1_NtCscJhqz4rleTI_11atlas_local6dockerNtNtCs8S3PMBouT3I_7bollard6docker6DockerNtB5_19DockerStopContainer14stop_container
FNDA:0,_RNvXs2_NtCscJhqz4rleTI_11atlas_local6dockerNtNtCs8S3PMBouT3I_7bollard6docker6DockerNtB5_21DockerRemoveContainer16remove_container
FNDA:0,_RNvXs3_NtCscJhqz4rleTI_11atlas_local6dockerNtNtCs8S3PMBouT3I_7bollard6docker6DockerNtB5_21DockerCreateContainer16create_container
FNDA:0,_RNvXs4_NtCscJhqz4rleTI_11atlas_local6dockerNtNtCs8S3PMBouT3I_7bollard6docker6DockerNtB5_20DockerStartContainer15start_container
FNDA:0,_RNvXs5_NtCscJhqz4rleTI_11atlas_local6dockerNtNtCs8S3PMBouT3I_7bollard6docker6DockerNtB5_21RunCommandInContainer24run_command_in_container
FNDA:0,_RNvXs_NtCscJhqz4rleTI_11atlas_local6dockerNtNtCs8S3PMBouT3I_7bollard6docker6DockerNtB4_20DockerListContainers15list_containers
FNF:16
FNH:0
DA:25,0
DA:26,0
DA:27,0
DA:28,0
DA:29,0
DA:30,0
DA:31,0
DA:42,0
DA:43,0
DA:44,0
DA:45,0
DA:46,0
DA:47,0
DA:55,0
DA:57,0
DA:58,0
DA:59,0
DA:60,0
DA:63,0
DA:66,0
DA:67,0
DA:70,0
DA:71,0
DA:83,0
DA:84,0
DA:85,0
DA:86,0
DA:87,0
DA:88,0
DA:89,0
DA:101,0
DA:102,0
DA:103,0
DA:104,0
DA:105,0
DA:106,0
DA:107,0
DA:119,0
DA:120,0
DA:121,0
DA:122,0
DA:123,0
DA:124,0
DA:125,0
DA:137,0
DA:138,0
DA:139,0
DA:140,0
DA:141,0
DA:142,0
DA:143,0
DA:172,0
DA:173,0
DA:174,0
DA:175,0
DA:176,0
DA:177,0
DA:178,0
DA:179,0
DA:180,0
DA:181,0
DA:182,0
DA:183,0
DA:184,0
DA:185,0
DA:186,0
DA:187,0
DA:188,0
DA:190,0
DA:191,0
DA:192,0
DA:193,0
DA:194,0
DA:195,0
DA:196,0
DA:197,0
DA:198,0
DA:199,0
DA:200,0
DA:202,0
DA:203,0
DA:206,0
DA:207,0
DA:209,0
DA:210,0
DA:212,0
DA:213,0
DA:214,0
DA:215,0
DA:216,0
DA:217,0
DA:218,0
DA:219,0
DA:223,0
DA:224,0
DA:225,0
DA:226,0
DA:227,0
BRF:0
BRH:0
LF:106
LH:0
end_of_record
SF:/Users/jeroen.vervaeke/git/github.com/mongodb/atlas-local-lib/src/models/create_deployment_options.rs
FN:56,_RNvXNtNtCscJhqz4rleTI_11atlas_local6models25create_deployment_optionsNtNtCsiAmkw3NBFjt_13bollard_stubs16query_parameters22CreateContainerOptionsINtNtCsaNl6UpbT7bw_4core7convert4FromRNtB2_23CreateDeploymentOptionsE4from
FN:143,_RNCNCNvXs_NtNtCscJhqz4rleTI_11atlas_local6models25create_deployment_optionsNtNtCsiAmkw3NBFjt_13bollard_stubs6models19ContainerCreateBodyINtNtCsaNl6UpbT7bw_4core7convert4FromRNtB8_23CreateDeploymentOptionsE4froms1_00Bc_
FN:60,_RNCNvXNtNtCscJhqz4rleTI_11atlas_local6models25create_deployment_optionsNtNtCsiAmkw3NBFjt_13bollard_stubs16query_parameters22CreateContainerOptionsINtNtCsaNl6UpbT7bw_4core7convert4FromRNtB4_23CreateDeploymentOptionsE4from0B8_
FN:77,_RNCNvXs_NtNtCscJhqz4rleTI_11atlas_local6models25create_deployment_optionsNtNtCsiAmkw3NBFjt_13bollard_stubs6models19ContainerCreateBodyINtNtCsaNl6UpbT7bw_4core7convert4FromRNtB6_23CreateDeploymentOptionsE4from0Ba_
FN:133,_RNCNvXs_NtNtCscJhqz4rleTI_11atlas_local6models25create_deployment_optionsNtNtCsiAmkw3NBFjt_13bollard_stubs6models19ContainerCreateBodyINtNtCsaNl6UpbT7bw_4core7convert4FromRNtB6_23CreateDeploymentOptionsE4froms0_0Ba_
FN:142,_RNCNvXs_NtNtCscJhqz4rleTI_11atlas_local6models25create_deployment_optionsNtNtCsiAmkw3NBFjt_13bollard_stubs6models19ContainerCreateBodyINtNtCsaNl6UpbT7bw_4core7convert4FromRNtB6_23CreateDeploymentOptionsE4froms1_0Ba_
FN:167,_RNCNvXs_NtNtCscJhqz4rleTI_11atlas_local6models25create_deployment_optionsNtNtCsiAmkw3NBFjt_13bollard_stubs6models19ContainerCreateBodyINtNtCsaNl6UpbT7bw_4core7convert4FromRNtB6_23CreateDeploymentOptionsE4froms2_0Ba_
FN:167,_RNCNvXs_NtNtCscJhqz4rleTI_11atlas_local6models25create_deployment_optionsNtNtCsiAmkw3NBFjt_13bollard_stubs6models19ContainerCreateBodyINtNtCsaNl6UpbT7bw_4core7convert4FromRNtB6_23CreateDeploymentOptionsE4froms3_0Ba_
FN:90,_RNCNvXs_NtNtCscJhqz4rleTI_11atlas_local6models25create_deployment_optionsNtNtCsiAmkw3NBFjt_13bollard_stubs6models19ContainerCreateBodyINtNtCsaNl6UpbT7bw_4core7convert4FromRNtB6_23CreateDeploymentOptionsE4froms_0Ba_
FN:198,_RNvNtNtNtCscJhqz4rleTI_11atlas_local6models25create_deployment_options5testss_36test_into_container_create_body_full
FN:360,_RNvNtNtNtCscJhqz4rleTI_11atlas_local6models25create_deployment_options5testss_38test_create_deployment_options_default
FN:291,_RNvNtNtNtCscJhqz4rleTI_11atlas_local6models25create_deployment_options5testss_39test_into_container_create_body_minimal
FN:349,_RNvNtNtNtCscJhqz4rleTI_11atlas_local6models25create_deployment_options5testss_42test_into_create_container_options_default
FN:331,_RNvNtNtNtCscJhqz4rleTI_11atlas_local6models25create_deployment_options5testss_42test_into_create_container_options_minimal
FN:70,_RNvXs_NtNtCscJhqz4rleTI_11atlas_local6models25create_deployment_optionsNtNtCsiAmkw3NBFjt_13bollard_stubs6models19ContainerCreateBodyINtNtCsaNl6UpbT7bw_4core7convert4FromRNtB4_23CreateDeploymentOptionsE4from
FNDA:13,_RNvXNtNtCscJhqz4rleTI_11atlas_local6models25create_deployment_optionsNtNtCsiAmkw3NBFjt_13bollard_stubs16query_parameters22CreateContainerOptionsINtNtCsaNl6UpbT7bw_4core7convert4FromRNtB2_23CreateDeploymentOptionsE4from
FNDA:9,_RNCNCNvXs_NtNtCscJhqz4rleTI_11atlas_local6models25create_deployment_optionsNtNtCsiAmkw3NBFjt_13bollard_stubs6models19ContainerCreateBodyINtNtCsaNl6UpbT7bw_4core7convert4FromRNtB8_23CreateDeploymentOptionsE4froms1_00Bc_
FNDA:1,_RNCNvXNtNtCscJhqz4rleTI_11atlas_local6models25create_deployment_optionsNtNtCsiAmkw3NBFjt_13bollard_stubs16query_parameters22CreateContainerOptionsINtNtCsaNl6UpbT7bw_4core7convert4FromRNtB4_23CreateDeploymentOptionsE4from0B8_
FNDA:12,_RNCNvXs_NtNtCscJhqz4rleTI_11atlas_local6models25create_deployment_optionsNtNtCsiAmkw3NBFjt_13bollard_stubs6models19ContainerCreateBodyINtNtCsaNl6UpbT7bw_4core7convert4FromRNtB6_23CreateDeploymentOptionsE4from0Ba_
FNDA:1,_RNCNvXs_NtNtCscJhqz4rleTI_11atlas_local6models25create_deployment_optionsNtNtCsiAmkw3NBFjt_13bollard_stubs6models19ContainerCreateBodyINtNtCsaNl6UpbT7bw_4core7convert4FromRNtB6_23CreateDeploymentOptionsE4froms0_0Ba_
FNDA:117,_RNCNvXs_NtNtCscJhqz4rleTI_11atlas_local6models25create_deployment_optionsNtNtCsiAmkw3NBFjt_13bollard_stubs6models19ContainerCreateBodyINtNtCsaNl6UpbT7bw_4core7convert4FromRNtB6_23CreateDeploymentOptionsE4froms1_0Ba_
FNDA:12,_RNCNvXs_NtNtCscJhqz4rleTI_11atlas_local6models25create_deployment_optionsNtNtCsiAmkw3NBFjt_13bollard_stubs6models19ContainerCreateBodyINtNtCsaNl6UpbT7bw_4core7convert4FromRNtB6_23CreateDeploymentOptionsE4froms2_0Ba_
FNDA:1,_RNCNvXs_NtNtCscJhqz4rleTI_11atlas_local6models25create_deployment_optionsNtNtCsiAmkw3NBFjt_13bollard_stubs6models19ContainerCreateBodyINtNtCsaNl6UpbT7bw_4core7convert4FromRNtB6_23CreateDeploymentOptionsE4froms3_0Ba_
FNDA:1,_RNCNvXs_NtNtCscJhqz4rleTI_11atlas_local6models25create_deployment_optionsNtNtCsiAmkw3NBFjt_13bollard_stubs6models19ContainerCreateBodyINtNtCsaNl6UpbT7bw_4core7convert4FromRNtB6_23CreateDeploymentOptionsE4froms_0Ba_
FNDA:1,_RNvNtNtNtCscJhqz4rleTI_11atlas_local6models25create_deployment_options5testss_36test_into_container_create_body_full
FNDA:1,_RNvNtNtNtCscJhqz4rleTI_11atlas_local6models25create_deployment_options5testss_38test_create_deployment_options_default
FNDA:1,_RNvNtNtNtCscJhqz4rleTI_11atlas_local6models25create_deployment_options5testss_39test_into_container_create_body_minimal
FNDA:1,_RNvNtNtNtCscJhqz4rleTI_11atlas_local6models25create_deployment_options5testss_42test_into_create_container_options_default
FNDA:1,_RNvNtNtNtCscJhqz4rleTI_11atlas_local6models25create_deployment_options5testss_42test_into_create_container_options_minimal
FNDA:13,_RNvXs_NtNtCscJhqz4rleTI_11atlas_local6models25create_deployment_optionsNtNtCsiAmkw3NBFjt_13bollard_stubs6models19ContainerCreateBodyINtNtCsaNl6UpbT7bw_4core7convert4FromRNtB4_23CreateDeploymentOptionsE4from
FNF:15
FNH:15
DA:56,13
DA:57,13
DA:58,13
DA:59,13
DA:60,13
DA:62,13
DA:63,13
DA:64,13
DA:65,13
DA:66,13
DA:70,13
DA:72,13
DA:73,13
DA:74,13
DA:75,13
DA:76,13
DA:77,12
DA:78,12
DA:79,12
DA:81,13
DA:82,13
DA:83,13
DA:86,13
DA:87,13
DA:88,13
DA:89,13
DA:90,13
DA:91,1
DA:92,1
DA:95,13
DA:96,13
DA:97,13
DA:98,13
DA:99,13
DA:100,13
DA:101,13
DA:102,13
DA:103,13
DA:104,13
DA:105,13
DA:106,13
DA:107,13
DA:108,13
DA:109,13
DA:110,13
DA:111,13
DA:112,13
DA:113,13
DA:114,13
DA:115,13
DA:116,13
DA:117,13
DA:118,13
DA:119,13
DA:120,13
DA:121,13
DA:122,13
DA:123,13
DA:124,13
DA:125,13
DA:126,13
DA:127,13
DA:129,13
DA:130,13
DA:131,13
DA:132,13
DA:133,13
DA:134,13
DA:136,13
DA:137,13
DA:138,13
DA:139,13
DA:141,13
DA:142,117
DA:143,117
DA:144,117
DA:145,13
DA:147,13
DA:148,1
DA:149,12
DA:152,13
DA:153,12
DA:155,1
DA:159,13
DA:160,13
DA:161,13
DA:162,13
DA:164,13
DA:165,13
DA:166,13
DA:167,13
DA:169,13
DA:172,13
DA:173,13
DA:174,13
DA:176,13
DA:177,13
DA:178,13
DA:179,13
DA:180,13
DA:181,13
DA:182,13
DA:183,13
DA:184,13
DA:185,13
DA:186,13
DA:187,13
DA:198,1
DA:200,1
DA:201,1
DA:202,1
DA:203,1
DA:204,1
DA:205,1
DA:206,1
DA:207,1
DA:208,1
DA:209,1
DA:210,1
DA:211,1
DA:212,1
DA:213,1
DA:214,1
DA:215,1
DA:216,1
DA:217,1
DA:218,1
DA:221,1
DA:222,1
DA:225,1
DA:227,1
DA:229,1
DA:230,1
DA:231,1
DA:232,1
DA:233,1
DA:234,1
DA:238,1
DA:239,1
DA:245,1
DA:246,1
DA:247,1
DA:248,1
DA:249,1
DA:250,1
DA:251,1
DA:252,1
DA:253,1
DA:254,1
DA:255,1
DA:256,1
DA:257,1
DA:258,1
DA:259,1
DA:260,1
DA:261,1
DA:262,1
DA:263,1
DA:264,1
DA:265,1
DA:266,1
DA:267,1
DA:268,1
DA:270,1
DA:271,1
DA:272,1
DA:273,1
DA:274,1
DA:275,1
DA:276,1
DA:277,1
DA:278,1
DA:279,1
DA:280,1
DA:282,1
DA:283,1
DA:284,1
DA:285,1
DA:286,1
DA:288,1
DA:291,1
DA:293,1
DA:296,1
DA:297,1
DA:300,1
DA:302,1
DA:305,1
DA:307,1
DA:308,1
DA:309,1
DA:310,1
DA:311,1
DA:312,1
DA:313,1
DA:314,1
DA:315,1
DA:317,1
DA:318,1
DA:320,1
DA:321,1
DA:322,1
DA:323,1
DA:324,1
DA:325,1
DA:327,1
DA:328,1
DA:331,1
DA:333,1
DA:334,1
DA:335,1
DA:336,1
DA:338,1
DA:339,1
DA:342,1
DA:344,1
DA:346,1
DA:349,1
DA:351,1
DA:352,1
DA:353,1
DA:356,1
DA:357,1
DA:360,1
DA:361,1
DA:364,1
DA:365,1
DA:366,1
DA:367,1
DA:368,1
DA:369,1
DA:370,1
DA:371,1
DA:372,1
DA:373,1
DA:374,1
DA:375,1
DA:376,1
DA:377,1
DA:378,1
DA:379,1
DA:380,1
DA:381,1
BRF:0
BRH:0
LF:249
LH:249
end_of_record
SF:/Users/jeroen.vervaeke/git/github.com/mongodb/atlas-local-lib/src/models/creation_source.rs
FN:12,_RNvXNtNtCscJhqz4rleTI_11atlas_local6models15creation_sourceNtB2_14CreationSourceINtNtCsaNl6UpbT7bw_4core7convert4FromReE4from
FN:23,_RNvXs_NtNtCscJhqz4rleTI_11atlas_local6models15creation_sourceNtB4_14CreationSourceNtNtCsaNl6UpbT7bw_4core3fmt7Display3fmt
FN:56,_RNvNtNtNtCscJhqz4rleTI_11atlas_local6models15creation_source5testss_33test_creation_source_from_unknown
FN:38,_RNvNtNtNtCscJhqz4rleTI_11atlas_local6models15creation_source5testss_34test_creation_source_from_atlascli
FN:44,_RNvNtNtNtCscJhqz4rleTI_11atlas_local6models15creation_source5testss_35test_creation_source_from_container
FN:50,_RNvNtNtNtCscJhqz4rleTI_11atlas_local6models15creation_source5testss_36test_creation_source_from_mcp_server
FN:83,_RNvNtNtNtCscJhqz4rleTI_11atlas_local6models15creation_source5testss_38test_creation_source_to_string_unknown
FN:65,_RNvNtNtNtCscJhqz4rleTI_11atlas_local6models15creation_source5testss_39test_creation_source_to_string_atlascli
FN:71,_RNvNtNtNtCscJhqz4rleTI_11atlas_local6models15creation_source5testss_40test_creation_source_to_string_container
FN:77,_RNvNtNtNtCscJhqz4rleTI_11atlas_local6models15creation_source5testss_41test_creation_source_to_string_mcp_server
FNDA:30,_RNvXNtNtCscJhqz4rleTI_11atlas_local6models15creation_sourceNtB2_14CreationSourceINtNtCsaNl6UpbT7bw_4core7convert4FromReE4from
FNDA:5,_RNvXs_NtNtCscJhqz4rleTI_11atlas_local6models15creation_sourceNtB4_14CreationSourceNtNtCsaNl6UpbT7bw_4core3fmt7Display3fmt
FNDA:1,_RNvNtNtNtCscJhqz4rleTI_11atlas_local6models15creation_source5testss_33test_creation_source_from_unknown
FNDA:1,_RNvNtNtNtCscJhqz4rleTI_11atlas_local6models15creation_source5testss_34test_creation_source_from_atlascli
FNDA:1,_RNvNtNtNtCscJhqz4rleTI_11atlas_local6models15creation_source5testss_35test_creation_source_from_container
FNDA:1,_RNvNtNtNtCscJhqz4rleTI_11atlas_local6models15creation_source5testss_36test_creation_source_from_mcp_server
FNDA:1,_RNvNtNtNtCscJhqz4rleTI_11atlas_local6models15creation_source5testss_38test_creation_source_to_string_unknown
FNDA:1,_RNvNtNtNtCscJhqz4rleTI_11atlas_local6models15creation_source5testss_39test_creation_source_to_string_atlascli
FNDA:1,_RNvNtNtNtCscJhqz4rleTI_11atlas_local6models15creation_source5testss_40test_creation_source_to_string_container
FNDA:1,_RNvNtNtNtCscJhqz4rleTI_11atlas_local6models15creation_source5testss_41test_creation_source_to_string_mcp_server
FNF:10
FNH:10
DA:12,30
DA:13,30
DA:14,30
DA:15,5
DA:16,3
DA:17,2
DA:19,30
DA:23,5
DA:24,5
DA:25,1
DA:26,2
DA:27,1
DA:28,1
DA:30,5
DA:38,1
DA:39,1
DA:40,1
DA:41,1
DA:44,1
DA:45,1
DA:46,1
DA:47,1
DA:50,1
DA:51,1
DA:52,1
DA:53,1
DA:56,1
DA:57,1
DA:58,1
DA:60,1
DA:62,1
DA:65,1
DA:66,1
DA:67,1
DA:68,1
DA:71,1
DA:72,1
DA:73,1
DA:74,1
DA:77,1
DA:78,1
DA:79,1
DA:80,1
DA:83,1
DA:84,1
DA:85,1
DA:86,1
BRF:0
BRH:0
LF:47
LH:47
end_of_record
SF:/Users/jeroen.vervaeke/git/github.com/mongodb/atlas-local-lib/src/models/deployment.rs
FN:146,_RNCNvNtNtCscJhqz4rleTI_11atlas_local6models10deployment27extract_local_seed_location0B7_
FN:74,_RNCNvXNtNtCscJhqz4rleTI_11atlas_local6models10deploymentNtB4_10DeploymentINtNtCsaNl6UpbT7bw_4core7convert7TryFromNtNtCsiAmkw3NBFjt_13bollard_stubs6models24ContainerInspectResponseE8try_from0B8_
FN:75,_RNCNvXNtNtCscJhqz4rleTI_11atlas_local6models10deploymentNtB4_10DeploymentINtNtCsaNl6UpbT7bw_4core7convert7TryFromNtNtCsiAmkw3NBFjt_13bollard_stubs6models24ContainerInspectResponseE8try_froms_0B8_
FN:138,_RNvNtNtCscJhqz4rleTI_11atlas_local6models10deployment27extract_local_seed_location
FN:61,_RNvXNtNtCscJhqz4rleTI_11atlas_local6models10deploymentNtB2_10DeploymentINtNtCsaNl6UpbT7bw_4core7convert7TryFromNtNtCsiAmkw3NBFjt_13bollard_stubs6models24ContainerInspectResponseE8try_from
FN:162,_RNvNtNtNtCscJhqz4rleTI_11atlas_local6models10deployment5testss_20test_into_deployment
FN:278,_RNvNtNtNtCscJhqz4rleTI_11atlas_local6models10deployment5testss_42test_extract_local_seed_location_no_mounts
FN:289,_RNvNtNtNtCscJhqz4rleTI_11atlas_local6models10deployment5testss_45test_extract_local_seed_location_empty_mounts
FN:322,_RNvNtNtNtCscJhqz4rleTI_11atlas_local6models10deployment5testss_47test_extract_local_seed_location_matching_mount
FN:300,_RNvNtNtNtCscJhqz4rleTI_11atlas_local6models10deployment5testss_50test_extract_local_seed_location_no_matching_mount
FNDA:4,_RNCNvNtNtCscJhqz4rleTI_11atlas_local6models10deployment27extract_local_seed_location0B7_
FNDA:27,_RNCNvXNtNtCscJhqz4rleTI_11atlas_local6models10deploymentNtB4_10DeploymentINtNtCsaNl6UpbT7bw_4core7convert7TryFromNtNtCsiAmkw3NBFjt_13bollard_stubs6models24ContainerInspectResponseE8try_from0B8_
FNDA:27,_RNCNvXNtNtCscJhqz4rleTI_11atlas_local6models10deploymentNtB4_10DeploymentINtNtCsaNl6UpbT7bw_4core7convert7TryFromNtNtCsiAmkw3NBFjt_13bollard_stubs6models24ContainerInspectResponseE8try_froms_0B8_
FNDA:30,_RNvNtNtCscJhqz4rleTI_11atlas_local6models10deployment27extract_local_seed_location
FNDA:27,_RNvXNtNtCscJhqz4rleTI_11atlas_local6models10deploymentNtB2_10DeploymentINtNtCsaNl6UpbT7bw_4core7convert7TryFromNtNtCsiAmkw3NBFjt_13bollard_stubs6models24ContainerInspectResponseE8try_from
FNDA:1,_RNvNtNtNtCscJhqz4rleTI_11atlas_local6models10deployment5testss_20test_into_deployment
FNDA:1,_RNvNtNtNtCscJhqz4rleTI_11atlas_local6models10deployment5testss_42test_extract_local_seed_location_no_mounts
FNDA:1,_RNvNtNtNtCscJhqz4rleTI_11atlas_local6models10deployment5testss_45test_extract_local_seed_location_empty_mounts
FNDA:1,_RNvNtNtNtCscJhqz4rleTI_11atlas_local6models10deployment5testss_47test_extract_local_seed_location_matching_mount
FNDA:1,_RNvNtNtNtCscJhqz4rleTI_11atlas_local6models10deployment5testss_50test_extract_local_seed_location_no_matching_mount
FNF:10
FNH:10
DA:61,27
DA:63,27
DA:64,27
DA:65,27
DA:66,27
DA:67,27
DA:71,27
DA:72,27
DA:73,27
DA:74,27
DA:75,27
DA:78,27
DA:79,26
DA:80,26
DA:81,26
DA:82,26
DA:86,26
DA:87,26
DA:88,26
DA:91,26
DA:92,26
DA:93,26
DA:94,26
DA:95,26
DA:96,26
DA:97,26
DA:98,26
DA:99,26
DA:100,26
DA:101,26
DA:103,26
DA:104,26
DA:105,26
DA:106,26
DA:107,26
DA:108,26
DA:109,26
DA:110,26
DA:111,26
DA:112,26
DA:113,26
DA:114,26
DA:115,26
DA:116,26
DA:117,26
DA:118,26
DA:119,26
DA:120,26
DA:121,26
DA:122,26
DA:123,26
DA:124,26
DA:125,26
DA:126,26
DA:127,26
DA:128,26
DA:129,26
DA:130,26
DA:131,26
DA:132,26
DA:133,26
DA:134,26
DA:135,27
DA:138,30
DA:139,30
DA:140,30
DA:142,30
DA:143,30
DA:144,30
DA:145,4
DA:146,4
DA:149,2
DA:150,30
DA:162,1
DA:164,1
DA:165,1
DA:166,1
DA:167,1
DA:170,1
DA:171,1
DA:172,1
DA:173,1
DA:174,1
DA:175,1
DA:176,1
DA:177,1
DA:178,1
DA:179,1
DA:180,1
DA:184,1
DA:185,1
DA:186,1
DA:187,1
DA:188,1
DA:191,1
DA:192,1
DA:193,1
DA:194,1
DA:197,1
DA:198,1
DA:199,1
DA:200,1
DA:201,1
DA:202,1
DA:203,1
DA:204,1
DA:205,1
DA:206,1
DA:208,1
DA:209,1
DA:210,1
DA:211,1
DA:212,1
DA:213,1
DA:214,1
DA:215,1
DA:216,1
DA:217,1
DA:218,1
DA:219,1
DA:220,1
DA:222,1
DA:225,1
DA:226,1
DA:227,1
DA:228,1
DA:229,1
DA:230,1
DA:231,1
DA:235,1
DA:236,1
DA:237,1
DA:238,1
DA:240,1
DA:242,1
DA:244,1
DA:246,1
DA:248,1
DA:250,1
DA:252,1
DA:254,1
DA:256,1
DA:258,1
DA:260,1
DA:262,1
DA:264,1
DA:266,1
DA:268,1
DA:270,1
DA:271,1
DA:273,1
DA:275,1
DA:278,1
DA:279,1
DA:280,1
DA:281,1
DA:282,1
DA:284,1
DA:285,1
DA:286,1
DA:289,1
DA:290,1
DA:291,1
DA:292,1
DA:293,1
DA:295,1
DA:296,1
DA:297,1
DA:300,1
DA:301,1
DA:302,1
DA:303,1
DA:304,1
DA:305,1
DA:306,1
DA:307,1
DA:308,1
DA:309,1
DA:310,1
DA:312,1
DA:313,1
DA:314,1
DA:315,1
DA:317,1
DA:318,1
DA:319,1
DA:322,1
DA:323,1
DA:324,1
DA:325,1
DA:326,1
DA:327,1
DA:329,1
DA:330,1
DA:331,1
DA:332,1
DA:334,1
DA:335,1
DA:336,1
BRF:0
BRH:0
LF:202
LH:202
end_of_record
SF:/Users/jeroen.vervaeke/git/github.com/mongodb/atlas-local-lib/src/models/environment_variables.rs
FN:79,_RINvNtNtCscJhqz4rleTI_11atlas_local6models21environment_variables9get_valueNtNtB4_15creation_source14CreationSourceEB6_
FN:79,_RINvNtNtCscJhqz4rleTI_11atlas_local6models21environment_variables9get_valueNtNtCsiTraAjBDcu4_5alloc6string6StringEB6_
FN:83,_RNCINvNtNtCscJhqz4rleTI_11atlas_local6models21environment_variables9get_valueNtNtB6_15creation_source14CreationSourceE0B8_
FN:83,_RNCINvNtNtCscJhqz4rleTI_11atlas_local6models21environment_variables9get_valueNtNtCsiTraAjBDcu4_5alloc6string6StringE0B8_
FN:55,_RNCNvXNtNtCscJhqz4rleTI_11atlas_local6models21environment_variablesNtB4_20EnvironmentVariablesINtNtCsaNl6UpbT7bw_4core7convert4FromRNtNtCsiAmkw3NBFjt_13bollard_stubs6models24ContainerInspectResponseE4froms_0B8_
FN:40,_RNvXNtNtCscJhqz4rleTI_11atlas_local6models21environment_variablesNtB2_20EnvironmentVariablesINtNtCsaNl6UpbT7bw_4core7convert4FromRNtNtCsiAmkw3NBFjt_13bollard_stubs6models24ContainerInspectResponseE4from
FN:92,_RNvNtNtNtCscJhqz4rleTI_11atlas_local6models21environment_variables5testss_46test_from_container_inspect_response_no_config
FN:250,_RNvNtNtNtCscJhqz4rleTI_11atlas_local6models21environment_variables5testss_49test_from_container_inspect_response_unknown_tool
FN:115,_RNvNtNtNtCscJhqz4rleTI_11atlas_local6models21environment_variables5testss_53test_from_container_inspect_response_no_env_variables
FN:210,_RNvNtNtNtCscJhqz4rleTI_11atlas_local6models21environment_variables5testss_58test_from_container_inspect_response_partial_env_variables
FN:141,_RNvNtNtNtCscJhqz4rleTI_11atlas_local6models21environment_variables5testss_59test_from_container_inspect_response_with_all_env_variables
FNDA:28,_RINvNtNtCscJhqz4rleTI_11atlas_local6models21environment_variables9get_valueNtNtB4_15creation_source14CreationSourceEB6_
FNDA:252,_RINvNtNtCscJhqz4rleTI_11atlas_local6models21environment_variables9get_valueNtNtCsiTraAjBDcu4_5alloc6string6StringEB6_
FNDA:26,_RNCINvNtNtCscJhqz4rleTI_11atlas_local6models21environment_variables9get_valueNtNtB6_15creation_source14CreationSourceE0B8_
FNDA:34,_RNCINvNtNtCscJhqz4rleTI_11atlas_local6models21environment_variables9get_valueNtNtCsiTraAjBDcu4_5alloc6string6StringE0B8_
FNDA:62,_RNCNvXNtNtCscJhqz4rleTI_11atlas_local6models21environment_variablesNtB4_20EnvironmentVariablesINtNtCsaNl6UpbT7bw_4core7convert4FromRNtNtCsiAmkw3NBFjt_13bollard_stubs6models24ContainerInspectResponseE4froms_0B8_
FNDA:31,_RNvXNtNtCscJhqz4rleTI_11atlas_local6models21environment_variablesNtB2_20EnvironmentVariablesINtNtCsaNl6UpbT7bw_4core7convert4FromRNtNtCsiAmkw3NBFjt_13bollard_stubs6models24ContainerInspectResponseE4from
FNDA:1,_RNvNtNtNtCscJhqz4rleTI_11atlas_local6models21environment_variables5testss_46test_from_container_inspect_response_no_config
FNDA:1,_RNvNtNtNtCscJhqz4rleTI_11atlas_local6models21environment_variables5testss_49test_from_container_inspect_response_unknown_tool
FNDA:1,_RNvNtNtNtCscJhqz4rleTI_11atlas_local6models21environment_variables5testss_53test_from_container_inspect_response_no_env_variables
FNDA:1,_RNvNtNtNtCscJhqz4rleTI_11atlas_local6models21environment_variables5testss_58test_from_container_inspect_response_partial_env_variables
FNDA:1,_RNvNtNtNtCscJhqz4rleTI_11atlas_local6models21environment_variables5testss_59test_from_container_inspect_response_with_all_env_variables
FNF:9
FNH:9
DA:40,31
DA:42,31
DA:46,31
DA:48,3
DA:53,28
DA:54,28
DA:55,62
DA:56,28
DA:59,28
DA:60,28
DA:61,28
DA:62,28
DA:63,28
DA:64,28
DA:65,28
DA:66,28
DA:67,28
DA:68,28
DA:69,28
DA:70,28
DA:71,28
DA:72,28
DA:73,28
DA:75,28
DA:76,31
DA:79,280
DA:80,280
DA:81,280
DA:83,280
DA:84,280
DA:92,1
DA:94,1
DA:95,1
DA:96,1
DA:97,1
DA:99,1
DA:102,1
DA:103,1
DA:104,1
DA:105,1
DA:106,1
DA:107,1
DA:108,1
DA:109,1
DA:110,1
DA:111,1
DA:112,1
DA:115,1
DA:117,1
DA:118,1
DA:119,1
DA:120,1
DA:121,1
DA:122,1
DA:123,1
DA:125,1
DA:128,1
DA:129,1
DA:130,1
DA:131,1
DA:132,1
DA:133,1
DA:134,1
DA:135,1
DA:136,1
DA:137,1
DA:138,1
DA:141,1
DA:143,1
DA:144,1
DA:145,1
DA:146,1
DA:147,1
DA:148,1
DA:151,1
DA:152,1
DA:153,1
DA:156,1
DA:157,1
DA:158,1
DA:159,1
DA:160,1
DA:165,1
DA:166,1
DA:167,1
DA:168,1
DA:169,1
DA:170,1
DA:171,1
DA:173,1
DA:176,1
DA:177,1
DA:179,1
DA:181,1
DA:183,1
DA:185,1
DA:187,1
DA:189,1
DA:191,1
DA:193,1
DA:195,1
DA:197,1
DA:198,1
DA:200,1
DA:202,1
DA:203,1
DA:205,1
DA:207,1
DA:210,1
DA:212,1
DA:213,1
DA:214,1
DA:215,1
DA:217,1
DA:218,1
DA:221,1
DA:222,1
DA:223,1
DA:224,1
DA:225,1
DA:226,1
DA:227,1
DA:229,1
DA:232,1
DA:233,1
DA:235,1
DA:237,1
DA:240,1
DA:241,1
DA:242,1
DA:243,1
DA:244,1
DA:245,1
DA:246,1
DA:247,1
DA:250,1
DA:252,1
DA:254,1
DA:255,1
DA:256,1
DA:257,1
DA:258,1
DA:259,1
DA:260,1
DA:262,1
DA:264,1
DA:266,1
DA:268,1
BRF:0
BRH:0
LF:150
LH:150
end_of_record
SF:/Users/jeroen.vervaeke/git/github.com/mongodb/atlas-local-lib/src/models/labels.rs
FN:39,_RNvXNtNtCscJhqz4rleTI_11atlas_local6models6labelsNtB2_21LocalDeploymentLabelsINtNtCsaNl6UpbT7bw_4core7convert7TryFromRNtNtCsiAmkw3NBFjt_13bollard_stubs6models24ContainerInspectResponseE8try_from
FN:62,_RNCNvXNtNtCscJhqz4rleTI_11atlas_local6models6labelsNtB4_21LocalDeploymentLabelsINtNtCsaNl6UpbT7bw_4core7convert7TryFromRNtNtCsiAmkw3NBFjt_13bollard_stubs6models24ContainerInspectResponseE8try_from0B8_
FN:265,_RNvNtNtNtCscJhqz4rleTI_11atlas_local6models6labels5testss_16successful_parse
FN:236,_RNvNtNtNtCscJhqz4rleTI_11atlas_local6models6labels5testss_20invalid_mongodb_type
FN:114,_RNvNtNtNtCscJhqz4rleTI_11atlas_local6models6labels5testss_20missing_marker_label
FN:211,_RNvNtNtNtCscJhqz4rleTI_11atlas_local6models6labels5testss_20missing_mongodb_type
FN:183,_RNvNtNtNtCscJhqz4rleTI_11atlas_local6models6labels5testss_23invalid_mongodb_version
FN:159,_RNvNtNtNtCscJhqz4rleTI_11atlas_local6models6labels5testss_23missing_mongodb_version
FN:88,_RNvNtNtNtCscJhqz4rleTI_11atlas_local6models6labels5testss_24missing_container_config
FN:98,_RNvNtNtNtCscJhqz4rleTI_11atlas_local6models6labels5testss_24missing_container_labels
FN:135,_RNvNtNtNtCscJhqz4rleTI_11atlas_local6models6labels5testss_26invalid_marker_label_value
FNDA:36,_RNvXNtNtCscJhqz4rleTI_11atlas_local6models6labelsNtB2_21LocalDeploymentLabelsINtNtCsaNl6UpbT7bw_4core7convert7TryFromRNtNtCsiAmkw3NBFjt_13bollard_stubs6models24ContainerInspectResponseE8try_from
FNDA:1,_RNCNvXNtNtCscJhqz4rleTI_11atlas_local6models6labelsNtB4_21LocalDeploymentLabelsINtNtCsaNl6UpbT7bw_4core7convert7TryFromRNtNtCsiAmkw3NBFjt_13bollard_stubs6models24ContainerInspectResponseE8try_from0B8_
FNDA:1,_RNvNtNtNtCscJhqz4rleTI_11atlas_local6models6labels5testss_16successful_parse
FNDA:1,_RNvNtNtNtCscJhqz4rleTI_11atlas_local6models6labels5testss_20invalid_mongodb_type
FNDA:1,_RNvNtNtNtCscJhqz4rleTI_11atlas_local6models6labels5testss_20missing_marker_label
FNDA:1,_RNvNtNtNtCscJhqz4rleTI_11atlas_local6models6labels5testss_20missing_mongodb_type
FNDA:1,_RNvNtNtNtCscJhqz4rleTI_11atlas_local6models6labels5testss_23invalid_mongodb_version
FNDA:1,_RNvNtNtNtCscJhqz4rleTI_11atlas_local6models6labels5testss_23missing_mongodb_version
FNDA:1,_RNvNtNtNtCscJhqz4rleTI_11atlas_local6models6labels5testss_24missing_container_config
FNDA:1,_RNvNtNtNtCscJhqz4rleTI_11atlas_local6models6labels5testss_24missing_container_labels
FNDA:1,_RNvNtNtNtCscJhqz4rleTI_11atlas_local6models6labels5testss_26invalid_marker_label_value
FNF:11
FNH:11
DA:39,36
DA:42,36
DA:43,36
DA:44,36
DA:45,36
DA:47,35
DA:48,35
DA:51,33
DA:52,33
DA:53,33
DA:54,32
DA:55,1
DA:56,31
DA:59,31
DA:60,31
DA:61,31
DA:62,30
DA:63,1
DA:64,1
DA:65,1
DA:66,1
DA:69,29
DA:70,29
DA:71,29
DA:72,28
DA:74,27
DA:75,27
DA:76,27
DA:77,27
DA:78,36
DA:88,1
DA:89,1
DA:90,1
DA:91,1
DA:95,1
DA:98,1
DA:99,1
DA:100,1
DA:101,1
DA:102,1
DA:103,1
DA:104,1
DA:105,1
DA:106,1
DA:107,1
DA:111,1
DA:114,1
DA:117,1
DA:118,1
DA:120,1
DA:121,1
DA:122,1
DA:123,1
DA:124,1
DA:125,1
DA:126,1
DA:127,1
DA:128,1
DA:132,1
DA:135,1
DA:138,1
DA:139,1
DA:140,1
DA:141,1
DA:144,1
DA:145,1
DA:146,1
DA:147,1
DA:148,1
DA:149,1
DA:150,1
DA:151,1
DA:152,1
DA:156,1
DA:159,1
DA:162,1
DA:163,1
DA:164,1
DA:165,1
DA:168,1
DA:169,1
DA:170,1
DA:171,1
DA:172,1
DA:173,1
DA:174,1
DA:175,1
DA:176,1
DA:180,1
DA:183,1
DA:186,1
DA:187,1
DA:188,1
DA:189,1
DA:191,1
DA:192,1
DA:193,1
DA:196,1
DA:197,1
DA:198,1
DA:199,1
DA:200,1
DA:201,1
DA:202,1
DA:203,1
DA:204,1
DA:205,1
DA:208,1
DA:211,1
DA:214,1
DA:215,1
DA:216,1
DA:217,1
DA:219,1
DA:221,1
DA:222,1
DA:223,1
DA:224,1
DA:225,1
DA:226,1
DA:227,1
DA:228,1
DA:229,1
DA:233,1
DA:236,1
DA:239,1
DA:240,1
DA:241,1
DA:242,1
DA:244,1
DA:245,1
DA:246,1
DA:247,1
DA:250,1
DA:251,1
DA:252,1
DA:253,1
DA:254,1
DA:255,1
DA:256,1
DA:257,1
DA:258,1
DA:259,1
DA:262,1
DA:265,1
DA:268,1
DA:269,1
DA:270,1
DA:271,1
DA:273,1
DA:274,1
DA:276,1
DA:277,1
DA:278,1
DA:279,1
DA:280,1
DA:281,1
DA:282,1
DA:283,1
DA:285,1
DA:286,1
DA:287,1
DA:288,1
DA:289,1
BRF:0
BRH:0
LF:166
LH:166
end_of_record
SF:/Users/jeroen.vervaeke/git/github.com/mongodb/atlas-local-lib/src/models/mongodb_type.rs
FN:30,_RNvNtNtNtCscJhqz4rleTI_11atlas_local6models12mongodb_type5testss_23test_parse_mongodb_type
FN:16,_RNvXNtNtCscJhqz4rleTI_11atlas_local6models12mongodb_typeNtB2_11MongodbTypeNtNtNtCsaNl6UpbT7bw_4core3str6traits7FromStr8from_str
FNDA:1,_RNvNtNtNtCscJhqz4rleTI_11atlas_local6models12mongodb_type5testss_23test_parse_mongodb_type
FNDA:31,_RNvXNtNtCscJhqz4rleTI_11atlas_local6models12mongodb_typeNtB2_11MongodbTypeNtNtNtCsaNl6UpbT7bw_4core3str6traits7FromStr8from_str
FNF:2
FNH:2
DA:16,31
DA:17,31
DA:18,31
DA:19,3
DA:20,2
DA:22,31
DA:30,1
DA:31,1
DA:32,1
DA:35,1
DA:36,1
DA:39,1
DA:40,1
BRF:0
BRH:0
LF:13
LH:13
end_of_record
SF:/Users/jeroen.vervaeke/git/github.com/mongodb/atlas-local-lib/src/models/port_binding.rs
FN:96,_RNvMNtNtCscJhqz4rleTI_11atlas_local6models12port_bindingNtB2_18MongoDBPortBinding17get_mongodb_ports
FN:33,_RNvMNtNtCscJhqz4rleTI_11atlas_local6models12port_bindingNtB2_18MongoDBPortBinding3new
FN:37,_RNvMNtNtCscJhqz4rleTI_11atlas_local6models12port_bindingNtB2_18MongoDBPortBinding8try_from
FN:112,_RNvXs_NtNtCscJhqz4rleTI_11atlas_local6models12port_bindingNtB4_17ParsedPortBindingINtNtCsaNl6UpbT7bw_4core7convert7TryFromRNtNtCsiAmkw3NBFjt_13bollard_stubs6models11PortBindingE8try_from
FN:168,_RNvNtNtNtCscJhqz4rleTI_11atlas_local6models12port_binding5tests19create_port_binding
FN:153,_RNvNtNtNtCscJhqz4rleTI_11atlas_local6models12port_binding5tests44create_container_response_with_mongodb_ports
FN:278,_RNvNtNtNtCscJhqz4rleTI_11atlas_local6models12port_binding5testss_27test_try_from_missing_ports
FN:405,_RNvNtNtNtCscJhqz4rleTI_11atlas_local6models12port_binding5testss_29test_try_from_invalid_host_ip
FN:394,_RNvNtNtNtCscJhqz4rleTI_11atlas_local6models12port_binding5testss_29test_try_from_missing_host_ip
FN:311,_RNvNtNtNtCscJhqz4rleTI_11atlas_local6models12port_binding5testss_33test_try_from_empty_mongodb_ports
FN:380,_RNvNtNtNtCscJhqz4rleTI_11atlas_local6models12port_binding5testss_33test_try_from_invalid_port_number
FN:369,_RNvNtNtNtCscJhqz4rleTI_11atlas_local6models12port_binding5testss_33test_try_from_missing_port_number
FN:291,_RNvNtNtNtCscJhqz4rleTI_11atlas_local6models12port_binding5testss_34test_try_from_missing_mongodb_port
FN:419,_RNvNtNtNtCscJhqz4rleTI_11atlas_local6models12port_binding5testss_35test_loopback_into_port_binding_vec
FN:435,_RNvNtNtNtCscJhqz4rleTI_11atlas_local6models12port_binding5testss_38test_specific_ip_into_port_binding_vec
FN:268,_RNvNtNtNtCscJhqz4rleTI_11atlas_local6models12port_binding5testss_38test_try_from_missing_network_settings
FN:176,_RNvNtNtNtCscJhqz4rleTI_11atlas_local6models12port_binding5testss_39test_try_from_successful_parse_loopback
FN:427,_RNvNtNtNtCscJhqz4rleTI_11atlas_local6models12port_binding5testss_40test_any_interface_into_port_binding_vec
FN:191,_RNvNtNtNtCscJhqz4rleTI_11atlas_local6models12port_binding5testss_44test_try_from_successful_parse_any_interface
FN:255,_RNvNtNtNtCscJhqz4rleTI_11atlas_local6models12port_binding5testss_44test_try_from_successful_parse_loopback_ipv6
FN:237,_RNvNtNtNtCscJhqz4rleTI_11atlas_local6models12port_binding5testss_44test_try_from_successful_parse_specific_ipv4
FN:445,_RNvNtNtNtCscJhqz4rleTI_11atlas_local6models12port_binding5testss_46test_specific_ip_into_port_binding_vec_no_port
FN:346,_RNvNtNtNtCscJhqz4rleTI_11atlas_local6models12port_binding5testss_48test_try_from_multiple_ports_ipv4_and_ipv6_found
FN:205,_RNvNtNtNtCscJhqz4rleTI_11atlas_local6models12port_binding5testss_48test_try_from_successful_parse_two_any_interface
FN:220,_RNvNtNtNtCscJhqz4rleTI_11atlas_local6models12port_binding5testss_49test_try_from_successful_parse_many_any_interface
FN:329,_RNvNtNtNtCscJhqz4rleTI_11atlas_local6models12port_binding5testss_51test_try_from_multiple_ports_same_port_number_found
FN:358,_RNvNtNtNtCscJhqz4rleTI_11atlas_local6models12port_binding5testss_54test_try_from_multiple_ports_different_addresses_found
FN:318,_RNvNtNtNtCscJhqz4rleTI_11atlas_local6models12port_binding5testss_56test_try_from_multiple_ports_different_port_number_found
FN:134,_RNvXs0_NtNtCscJhqz4rleTI_11atlas_local6models12port_bindingNtNtCsiAmkw3NBFjt_13bollard_stubs6models11PortBindingINtNtCsaNl6UpbT7bw_4core7convert4FromRNtB5_18MongoDBPortBindingE4from
FN:63,_RNCNvMNtNtCscJhqz4rleTI_11atlas_local6models12port_bindingNtB4_18MongoDBPortBinding8try_from0B8_
FN:70,_RNCNvMNtNtCscJhqz4rleTI_11atlas_local6models12port_bindingNtB4_18MongoDBPortBinding8try_froms0_0B8_
FN:69,_RNCNvMNtNtCscJhqz4rleTI_11atlas_local6models12port_bindingNtB4_18MongoDBPortBinding8try_froms_0B8_
FN:142,_RNCNvXs0_NtNtCscJhqz4rleTI_11atlas_local6models12port_bindingNtNtCsiAmkw3NBFjt_13bollard_stubs6models11PortBindingINtNtCsaNl6UpbT7bw_4core7convert4FromRNtB7_18MongoDBPortBindingE4from0Bb_
FNDA:44,_RNvMNtNtCscJhqz4rleTI_11atlas_local6models12port_bindingNtB2_18MongoDBPortBinding17get_mongodb_ports
FNDA:17,_RNvMNtNtCscJhqz4rleTI_11atlas_local6models12port_bindingNtB2_18MongoDBPortBinding3new
FNDA:44,_RNvMNtNtCscJhqz4rleTI_11atlas_local6models12port_bindingNtB2_18MongoDBPortBinding8try_from
FNDA:26,_RNvXs_NtNtCscJhqz4rleTI_11atlas_local6models12port_bindingNtB4_17ParsedPortBindingINtNtCsaNl6UpbT7bw_4core7convert7TryFromRNtNtCsiAmkw3NBFjt_13bollard_stubs6models11PortBindingE8try_from
FNDA:19,_RNvNtNtNtCscJhqz4rleTI_11atlas_local6models12port_binding5tests19create_port_binding
FNDA:15,_RNvNtNtNtCscJhqz4rleTI_11atlas_local6models12port_binding5tests44create_container_response_with_mongodb_ports
FNDA:1,_RNvNtNtNtCscJhqz4rleTI_11atlas_local6models12port_binding5testss_27test_try_from_missing_ports
FNDA:1,_RNvNtNtNtCscJhqz4rleTI_11atlas_local6models12port_binding5testss_29test_try_from_invalid_host_ip
FNDA:1,_RNvNtNtNtCscJhqz4rleTI_11atlas_local6models12port_binding5testss_29test_try_from_missing_host_ip
FNDA:1,_RNvNtNtNtCscJhqz4rleTI_11atlas_local6models12port_binding5testss_33test_try_from_empty_mongodb_ports
FNDA:1,_RNvNtNtNtCscJhqz4rleTI_11atlas_local6models12port_binding5testss_33test_try_from_invalid_port_number
FNDA:1,_RNvNtNtNtCscJhqz4rleTI_11atlas_local6models12port_binding5testss_33test_try_from_missing_port_number
FNDA:1,_RNvNtNtNtCscJhqz4rleTI_11atlas_local6models12port_binding5testss_34test_try_from_missing_mongodb_port
FNDA:1,_RNvNtNtNtCscJhqz4rleTI_11atlas_local6models12port_binding5testss_35test_loopback_into_port_binding_vec
FNDA:1,_RNvNtNtNtCscJhqz4rleTI_11atlas_local6models12port_binding5testss_38test_specific_ip_into_port_binding_vec
FNDA:1,_RNvNtNtNtCscJhqz4rleTI_11atlas_local6models12port_binding5testss_38test_try_from_missing_network_settings
FNDA:1,_RNvNtNtNtCscJhqz4rleTI_11atlas_local6models12port_binding5testss_39test_try_from_successful_parse_loopback
FNDA:1,_RNvNtNtNtCscJhqz4rleTI_11atlas_local6models12port_binding5testss_40test_any_interface_into_port_binding_vec
FNDA:1,_RNvNtNtNtCscJhqz4rleTI_11atlas_local6models12port_binding5testss_44test_try_from_successful_parse_any_interface
FNDA:1,_RNvNtNtNtCscJhqz4rleTI_11atlas_local6models12port_binding5testss_44test_try_from_successful_parse_loopback_ipv6
FNDA:1,_RNvNtNtNtCscJhqz4rleTI_11atlas_local6models12port_binding5testss_44test_try_from_successful_parse_specific_ipv4
FNDA:1,_RNvNtNtNtCscJhqz4rleTI_11atlas_local6models12port_binding5testss_46test_specific_ip_into_port_binding_vec_no_port
FNDA:1,_RNvNtNtNtCscJhqz4rleTI_11atlas_local6models12port_binding5testss_48test_try_from_multiple_ports_ipv4_and_ipv6_found
FNDA:1,_RNvNtNtNtCscJhqz4rleTI_11atlas_local6models12port_binding5testss_48test_try_from_successful_parse_two_any_interface
FNDA:1,_RNvNtNtNtCscJhqz4rleTI_11atlas_local6models12port_binding5testss_49test_try_from_successful_parse_many_any_interface
FNDA:1,_RNvNtNtNtCscJhqz4rleTI_11atlas_local6models12port_binding5testss_51test_try_from_multiple_ports_same_port_number_found
FNDA:1,_RNvNtNtNtCscJhqz4rleTI_11atlas_local6models12port_binding5testss_54test_try_from_multiple_ports_different_addresses_found
FNDA:1,_RNvNtNtNtCscJhqz4rleTI_11atlas_local6models12port_binding5testss_56test_try_from_multiple_ports_different_port_number_found
FNDA:8,_RNvXs0_NtNtCscJhqz4rleTI_11atlas_local6models12port_bindingNtNtCsiAmkw3NBFjt_13bollard_stubs6models11PortBindingINtNtCsaNl6UpbT7bw_4core7convert4FromRNtB5_18MongoDBPortBindingE4from
FNDA:14,_RNCNvMNtNtCscJhqz4rleTI_11atlas_local6models12port_bindingNtB4_18MongoDBPortBinding8try_from0B8_
FNDA:8,_RNCNvMNtNtCscJhqz4rleTI_11atlas_local6models12port_bindingNtB4_18MongoDBPortBinding8try_froms0_0B8_
FNDA:6,_RNCNvMNtNtCscJhqz4rleTI_11atlas_local6models12port_bindingNtB4_18MongoDBPortBinding8try_froms_0B8_
FNDA:7,_RNCNvXs0_NtNtCscJhqz4rleTI_11atlas_local6models12port_bindingNtNtCsiAmkw3NBFjt_13bollard_stubs6models11PortBindingINtNtCsaNl6UpbT7bw_4core7convert4FromRNtB7_18MongoDBPortBindingE4from0Bb_
FNF:33
FNH:33
DA:33,17
DA:34,17
DA:35,17
DA:37,44
DA:38,44
DA:39,44
DA:40,44
DA:41,25
DA:44,19
DA:45,19
DA:46,19
DA:47,19
DA:50,15
DA:52,1
DA:54,8
DA:59,6
DA:60,6
DA:61,6
DA:63,14
DA:64,6
DA:65,2
DA:66,4
DA:69,6
DA:70,8
DA:73,4
DA:74,1
DA:75,3
DA:81,11
DA:84,11
DA:85,11
DA:86,8
DA:87,1
DA:90,11
DA:91,11
DA:92,11
DA:93,11
DA:94,44
DA:96,44
DA:97,44
DA:98,22
DA:99,21
DA:100,19
DA:101,44
DA:112,26
DA:114,26
DA:115,26
DA:116,26
DA:117,26
DA:118,25
DA:119,25
DA:122,24
DA:123,24
DA:124,24
DA:125,24
DA:126,23
DA:127,23
DA:129,22
DA:130,26
DA:134,8
DA:135,8
DA:136,1
DA:137,5
DA:138,2
DA:141,8
DA:142,8
DA:144,8
DA:153,15
DA:154,15
DA:155,15
DA:156,15
DA:157,15
DA:159,15
DA:160,15
DA:161,15
DA:162,15
DA:163,15
DA:164,15
DA:165,15
DA:166,15
DA:168,19
DA:169,19
DA:170,19
DA:171,19
DA:172,19
DA:173,19
DA:176,1
DA:177,1
DA:178,1
DA:179,1
DA:182,1
DA:183,1
DA:185,1
DA:186,1
DA:187,1
DA:188,1
DA:191,1
DA:192,1
DA:193,1
DA:196,1
DA:197,1
DA:199,1
DA:200,1
DA:201,1
DA:202,1
DA:205,1
DA:206,1
DA:207,1
DA:208,1
DA:211,1
DA:212,1
DA:214,1
DA:215,1
DA:216,1
DA:217,1
DA:220,1
DA:221,1
DA:222,1
DA:223,1
DA:224,1
DA:225,1
DA:228,1
DA:229,1
DA:231,1
DA:232,1
DA:233,1
DA:234,1
DA:237,1
DA:238,1
DA:239,1
DA:240,1
DA:243,1
DA:244,1
DA:246,1
DA:247,1
DA:248,1
DA:250,1
DA:252,1
DA:255,1
DA:256,1
DA:257,1
DA:259,1
DA:260,1
DA:262,1
DA:263,1
DA:264,1
DA:265,1
DA:268,1
DA:269,1
DA:270,1
DA:271,1
DA:272,1
DA:273,1
DA:274,1
DA:275,1
DA:278,1
DA:279,1
DA:280,1
DA:281,1
DA:282,1
DA:283,1
DA:284,1
DA:285,1
DA:286,1
DA:287,1
DA:288,1
DA:291,1
DA:292,1
DA:293,1
DA:294,1
DA:295,1
DA:298,1
DA:299,1
DA:300,1
DA:301,1
DA:302,1
DA:303,1
DA:304,1
DA:306,1
DA:307,1
DA:308,1
DA:311,1
DA:312,1
DA:313,1
DA:314,1
DA:315,1
DA:318,1
DA:319,1
DA:320,1
DA:321,1
DA:324,1
DA:325,1
DA:326,1
DA:329,1
DA:330,1
DA:331,1
DA:332,1
DA:335,1
DA:336,1
DA:338,1
DA:339,1
DA:340,1
DA:341,1
DA:343,1
DA:346,1
DA:347,1
DA:348,1
DA:349,1
DA:352,1
DA:353,1
DA:354,1
DA:358,1
DA:359,1
DA:360,1
DA:361,1
DA:364,1
DA:365,1
DA:366,1
DA:369,1
DA:370,1
DA:371,1
DA:372,1
DA:373,1
DA:375,1
DA:376,1
DA:377,1
DA:380,1
DA:381,1
DA:382,1
DA:383,1
DA:384,1
DA:386,1
DA:387,1
DA:388,1
DA:391,1
DA:394,1
DA:395,1
DA:396,1
DA:397,1
DA:398,1
DA:400,1
DA:401,1
DA:402,1
DA:405,1
DA:406,1
DA:407,1
DA:408,1
DA:409,1
DA:411,1
DA:412,1
DA:413,1
DA:416,1
DA:419,1
DA:420,1
DA:421,1
DA:423,1
DA:424,1
DA:425,1
DA:427,1
DA:428,1
DA:429,1
DA:431,1
DA:432,1
DA:433,1
DA:435,1
DA:436,1
DA:437,1
DA:438,1
DA:439,1
DA:441,1
DA:442,1
DA:443,1
DA:445,1
DA:446,1
DA:447,1
DA:448,1
DA:450,1
DA:451,1
DA:452,1
BRF:0
BRH:0
LF:282
LH:282
end_of_record
SF:/Users/jeroen.vervaeke/git/github.com/mongodb/atlas-local-lib/src/models/state.rs
FN:26,_RNvXNtNtCscJhqz4rleTI_11atlas_local6models5stateNtB2_5StateINtNtCsaNl6UpbT7bw_4core7convert7TryFromRNtNtCsiAmkw3NBFjt_13bollard_stubs6models24ContainerInspectResponseE8try_from
FN:45,_RNvXs_NtNtCscJhqz4rleTI_11atlas_local6models5stateNtB4_5StateINtNtCsaNl6UpbT7bw_4core7convert7TryFromRNtNtCsiAmkw3NBFjt_13bollard_stubs6models24ContainerStateStatusEnumE8try_from
FN:209,_RNvNtNtNtCscJhqz4rleTI_11atlas_local6models5state5testss_22test_error_types_debug
FN:197,_RNvNtNtNtCscJhqz4rleTI_11atlas_local6models5state5testss_26test_state_debug_and_clone
FN:177,_RNvNtNtNtCscJhqz4rleTI_11atlas_local6models5state5testss_46test_all_states_have_corresponding_enum_values
FN:111,_RNvNtNtNtCscJhqz4rleTI_11atlas_local6models5state5testss_48test_try_from_container_inspect_response_success
FN:67,_RNvNtNtNtCscJhqz4rleTI_11atlas_local6models5state5testss_49test_try_from_container_state_status_enum_success
FN:155,_RNvNtNtNtCscJhqz4rleTI_11atlas_local6models5state5testss_53test_try_from_container_inspect_response_empty_status
FN:100,_RNvNtNtNtCscJhqz4rleTI_11atlas_local6models5state5testss_53test_try_from_container_state_status_enum_empty_error
FN:130,_RNvNtNtNtCscJhqz4rleTI_11atlas_local6models5state5testss_54test_try_from_container_inspect_response_missing_state
FN:140,_RNvNtNtNtCscJhqz4rleTI_11atlas_local6models5state5testss_55test_try_from_container_inspect_response_missing_status
FNDA:30,_RNvXNtNtCscJhqz4rleTI_11atlas_local6models5stateNtB2_5StateINtNtCsaNl6UpbT7bw_4core7convert7TryFromRNtNtCsiAmkw3NBFjt_13bollard_stubs6models24ContainerInspectResponseE8try_from
FNDA:43,_RNvXs_NtNtCscJhqz4rleTI_11atlas_local6models5stateNtB4_5StateINtNtCsaNl6UpbT7bw_4core7convert7TryFromRNtNtCsiAmkw3NBFjt_13bollard_stubs6models24ContainerStateStatusEnumE8try_from
FNDA:1,_RNvNtNtNtCscJhqz4rleTI_11atlas_local6models5state5testss_22test_error_types_debug
FNDA:1,_RNvNtNtNtCscJhqz4rleTI_11atlas_local6models5state5testss_26test_state_debug_and_clone
FNDA:1,_RNvNtNtNtCscJhqz4rleTI_11atlas_local6models5state5testss_46test_all_states_have_corresponding_enum_values
FNDA:1,_RNvNtNtNtCscJhqz4rleTI_11atlas_local6models5state5testss_48test_try_from_container_inspect_response_success
FNDA:1,_RNvNtNtNtCscJhqz4rleTI_11atlas_local6models5state5testss_49test_try_from_container_state_status_enum_success
FNDA:1,_RNvNtNtNtCscJhqz4rleTI_11atlas_local6models5state5testss_53test_try_from_container_inspect_response_empty_status
FNDA:1,_RNvNtNtNtCscJhqz4rleTI_11atlas_local6models5state5testss_53test_try_from_container_state_status_enum_empty_error
FNDA:1,_RNvNtNtNtCscJhqz4rleTI_11atlas_local6models5state5testss_54test_try_from_container_inspect_response_missing_state
FNDA:1,_RNvNtNtNtCscJhqz4rleTI_11atlas_local6models5state5testss_55test_try_from_container_inspect_response_missing_status
FNF:11
FNH:11
DA:26,30
DA:27,30
DA:28,30
DA:29,30
DA:30,30
DA:31,30
DA:32,28
DA:33,30
DA:45,43
DA:46,43
DA:47,2
DA:48,2
DA:49,2
DA:50,2
DA:51,2
DA:52,2
DA:53,29
DA:56,2
DA:59,43
DA:67,1
DA:69,1
DA:70,1
DA:73,1
DA:74,1
DA:77,1
DA:78,1
DA:81,1
DA:82,1
DA:85,1
DA:86,1
DA:89,1
DA:90,1
DA:93,1
DA:94,1
DA:97,1
DA:100,1
DA:102,1
DA:103,1
DA:104,1
DA:105,1
DA:108,1
DA:111,1
DA:115,1
DA:116,1
DA:117,1
DA:118,1
DA:119,1
DA:120,1
DA:121,1
DA:122,1
DA:124,1
DA:125,1
DA:126,1
DA:127,1
DA:130,1
DA:132,1
DA:134,1
DA:135,1
DA:136,1
DA:137,1
DA:140,1
DA:144,1
DA:145,1
DA:146,1
DA:147,1
DA:149,1
DA:150,1
DA:151,1
DA:152,1
DA:155,1
DA:159,1
DA:160,1
DA:161,1
DA:162,1
DA:163,1
DA:164,1
DA:165,1
DA:166,1
DA:168,1
DA:169,1
DA:170,1
DA:171,1
DA:174,1
DA:177,1
DA:179,1
DA:180,1
DA:181,1
DA:182,1
DA:183,1
DA:184,1
DA:185,1
DA:186,1
DA:187,1
DA:189,8
DA:190,7
DA:191,7
DA:192,7
DA:194,1
DA:197,1
DA:199,1
DA:200,1
DA:201,1
DA:204,1
DA:205,1
DA:206,1
DA:209,1
DA:211,1
DA:212,1
DA:213,1
DA:215,1
DA:216,1
DA:217,1
DA:218,1
BRF:0
BRH:0
LF:113
LH:113
end_of_record
SF:/Users/jeroen.vervaeke/git/github.com/mongodb/atlas-local-lib/src/test_utils.rs
FN:41,_RNvNtCscJhqz4rleTI_11atlas_local10test_utils41create_container_inspect_response_no_auth
FN:6,_RNvNtCscJhqz4rleTI_11atlas_local10test_utils43create_container_inspect_response_with_auth
FNDA:1,_RNvNtCscJhqz4rleTI_11atlas_local10test_utils41create_container_inspect_response_no_auth
FNDA:2,_RNvNtCscJhqz4rleTI_11atlas_local10test_utils43create_container_inspect_response_with_auth
FNF:2
FNH:2
DA:6,2
DA:7,2
DA:8,2
DA:9,2
DA:10,2
DA:11,2
DA:12,2
DA:13,2
DA:14,2
DA:15,2
DA:16,2
DA:17,2
DA:18,2
DA:19,2
DA:20,2
DA:21,2
DA:22,2
DA:23,2
DA:24,2
DA:25,2
DA:26,2
DA:27,2
DA:28,2
DA:29,2
DA:30,2
DA:31,2
DA:32,2
DA:33,2
DA:34,2
DA:35,2
DA:36,2
DA:37,2
DA:38,2
DA:39,2
DA:41,1
DA:42,1
DA:43,1
DA:44,1
DA:45,1
DA:46,1
DA:47,1
DA:48,1
DA:49,1
DA:50,1
DA:51,1
DA:52,1
DA:53,1
DA:54,1
DA:55,1
DA:56,1
DA:57,1
DA:58,1
DA:59,1
DA:60,1
DA:61,1
DA:62,1
DA:63,1
DA:64,1
DA:65,1
DA:66,1
DA:67,1
DA:68,1
DA:69,1
DA:70,1
BRF:0
BRH:0
LF:64
LH:64
end_of_record